---
triple:          'arm64-apple-darwin'
binary-path:     "/Users/gabrielavalencia/Documents/Estructuras Dinámicas/Ejercicios de Clase/tech_titans/output/main"
relocations:
  - { offsetInCU: 0x8E0A, offset: 0x8E0A, size: 0x8, addend: 0x0, symName: __ZNSt3__17advanceB8ue170006INS_21__tree_const_iteratorINS_12basic_stringIcNS_11char_traitsIcEENS_9allocatorIcEEEEPNS_11__tree_nodeIS7_PvEElEEllvEEvRT_T0_, symObjAddr: 0x5F28, symBinAddr: 0x100009044, symSize: 0x38 }
  - { offsetInCU: 0x8E9B, offset: 0x8E9B, size: 0x8, addend: 0x0, symName: __ZNSt3__124__put_character_sequenceB8ue170006IcNS_11char_traitsIcEEEERNS_13basic_ostreamIT_T0_EES7_PKS4_m, symObjAddr: 0x7320, symBinAddr: 0x10000A43C, symSize: 0x1F4 }
  - { offsetInCU: 0xB230, offset: 0xB230, size: 0x8, addend: 0x0, symName: __ZNSt3__16copy_nB8ue170006INS_16__deque_iteratorI6AlumnoPKS2_RS3_PKS4_lLl28EEElNS1_IS2_PS2_RS2_PS9_lLl28EEEEENS_9enable_ifIXsr37__has_random_access_iterator_categoryIT_EE5valueET1_E4typeESE_T0_SF_, symObjAddr: 0x101DC, symBinAddr: 0x1000132F8, symSize: 0x88 }
  - { offsetInCU: 0xC7DB, offset: 0xC7DB, size: 0x8, addend: 0x0, symName: __ZNSt3__1lsB8ue170006INS_11char_traitsIcEEEERNS_13basic_ostreamIcT_EES6_PKc, symObjAddr: 0x354, symBinAddr: 0x100003470, symSize: 0x48 }
  - { offsetInCU: 0xC821, offset: 0xC821, size: 0x8, addend: 0x0, symName: __ZNSt3__14endlB8ue170006IcNS_11char_traitsIcEEEERNS_13basic_ostreamIT_T0_EES7_, symObjAddr: 0x9A8, symBinAddr: 0x100003AC4, symSize: 0x58 }
  - { offsetInCU: 0xC861, offset: 0xC861, size: 0x8, addend: 0x0, symName: __ZNSt3__1rsB8ue170006IcNS_11char_traitsIcEENS_9allocatorIcEEEERNS_13basic_istreamIT_T0_EES9_RNS_12basic_stringIS6_S7_T1_EE, symObjAddr: 0xA2C, symBinAddr: 0x100003B48, symSize: 0x314 }
  - { offsetInCU: 0xC92E, offset: 0xC92E, size: 0x8, addend: 0x0, symName: __ZNSt3__1lsB8ue170006IcNS_11char_traitsIcEENS_9allocatorIcEEEERNS_13basic_ostreamIT_T0_EES9_RKNS_12basic_stringIS6_S7_T1_EE, symObjAddr: 0xD6C, symBinAddr: 0x100003E88, symSize: 0x4C }
  - { offsetInCU: 0xC986, offset: 0xC986, size: 0x8, addend: 0x0, symName: __ZNSt3__17getlineB8ue170006IcNS_11char_traitsIcEENS_9allocatorIcEEEERNS_13basic_istreamIT_T0_EES9_RNS_12basic_stringIS6_S7_T1_EE, symObjAddr: 0xDEC, symBinAddr: 0x100003F08, symSize: 0x5C }
  - { offsetInCU: 0xC9DE, offset: 0xC9DE, size: 0x8, addend: 0x0, symName: __ZNSt3__1eqB8ue170006INS_9allocatorIcEEEEbRKNS_12basic_stringIcNS_11char_traitsIcEET_EES9_, symObjAddr: 0xF20, symBinAddr: 0x10000403C, symSize: 0x148 }
  - { offsetInCU: 0xCA51, offset: 0xCA51, size: 0x8, addend: 0x0, symName: __ZNSt3__1neB8ue170006ERKNS_16__deque_iteratorINS_12basic_stringIcNS_11char_traitsIcEENS_9allocatorIcEEEEPS6_RS6_PS7_lLl170EEESC_, symObjAddr: 0x183C, symBinAddr: 0x100004958, symSize: 0x34 }
  - { offsetInCU: 0xCA8E, offset: 0xCA8E, size: 0x8, addend: 0x0, symName: __ZNSt3__1eqB8ue170006ERKNS_16__deque_iteratorINS_12basic_stringIcNS_11char_traitsIcEENS_9allocatorIcEEEEPS6_RS6_PS7_lLl170EEESC_, symObjAddr: 0x1B90, symBinAddr: 0x100004CAC, symSize: 0x30 }
  - { offsetInCU: 0xCACB, offset: 0xCACB, size: 0x8, addend: 0x0, symName: __ZNSt3__112__to_addressB8ue170006INS_12basic_stringIcNS_11char_traitsIcEENS_9allocatorIcEEEEEEPT_S8_, symObjAddr: 0x224C, symBinAddr: 0x100005368, symSize: 0x14 }
  - { offsetInCU: 0xCB00, offset: 0xCB00, size: 0x8, addend: 0x0, symName: __ZNSt3__130__libcpp_is_constant_evaluatedB8ue170006Ev, symObjAddr: 0x23EC, symBinAddr: 0x100005508, symSize: 0xC }
  - { offsetInCU: 0xCB1D, offset: 0xCB1D, size: 0x8, addend: 0x0, symName: __ZNSt3__119__libcpp_deallocateB8ue170006EPvmm, symObjAddr: 0x23F8, symBinAddr: 0x100005514, symSize: 0x30 }
  - { offsetInCU: 0xCB65, offset: 0xCB65, size: 0x8, addend: 0x0, symName: __ZNSt3__127__do_deallocate_handle_sizeB8ue170006IJEEEvPvmDpT_, symObjAddr: 0x2428, symBinAddr: 0x100005544, symSize: 0x28 }
  - { offsetInCU: 0xCBA3, offset: 0xCBA3, size: 0x8, addend: 0x0, symName: __ZNSt3__124__libcpp_operator_deleteB8ue170006IJPvEEEvDpT_, symObjAddr: 0x2450, symBinAddr: 0x10000556C, symSize: 0x24 }
  - { offsetInCU: 0xCBD8, offset: 0xCBD8, size: 0x8, addend: 0x0, symName: __ZNSt3__112__to_addressB8ue170006IPNS_12basic_stringIcNS_11char_traitsIcEENS_9allocatorIcEEEEEEPT_S9_, symObjAddr: 0x26DC, symBinAddr: 0x1000057F8, symSize: 0x14 }
  - { offsetInCU: 0xCC0D, offset: 0xCC0D, size: 0x8, addend: 0x0, symName: __ZNSt3__1neB8ue170006ERKNS_16__deque_iteratorI6AlumnoPS1_RS1_PS2_lLl28EEES7_, symObjAddr: 0x2DEC, symBinAddr: 0x100005F08, symSize: 0x34 }
  - { offsetInCU: 0xCC4A, offset: 0xCC4A, size: 0x8, addend: 0x0, symName: __ZNSt3__1eqB8ue170006ERKNS_16__deque_iteratorI6AlumnoPS1_RS1_PS2_lLl28EEES7_, symObjAddr: 0x312C, symBinAddr: 0x100006248, symSize: 0x30 }
  - { offsetInCU: 0xCC87, offset: 0xCC87, size: 0x8, addend: 0x0, symName: __ZNSt3__112__to_addressB8ue170006I6AlumnoEEPT_S3_, symObjAddr: 0x37D4, symBinAddr: 0x1000068F0, symSize: 0x14 }
  - { offsetInCU: 0xCCBC, offset: 0xCCBC, size: 0x8, addend: 0x0, symName: __ZNSt3__112__to_addressB8ue170006IP6AlumnoEEPT_S4_, symObjAddr: 0x3BDC, symBinAddr: 0x100006CF8, symSize: 0x14 }
  - { offsetInCU: 0xCD24, offset: 0xCD24, size: 0x8, addend: 0x0, symName: __ZNSt3__1neB8ue170006ERKNS_21__tree_const_iteratorINS_12basic_stringIcNS_11char_traitsIcEENS_9allocatorIcEEEEPNS_11__tree_nodeIS6_PvEElEESD_, symObjAddr: 0x4BD8, symBinAddr: 0x100007CF4, symSize: 0x34 }
  - { offsetInCU: 0xCD61, offset: 0xCD61, size: 0x8, addend: 0x0, symName: __ZNSt3__1eqB8ue170006ERKNS_21__tree_const_iteratorINS_12basic_stringIcNS_11char_traitsIcEENS_9allocatorIcEEEEPNS_11__tree_nodeIS6_PvEElEESD_, symObjAddr: 0x4CD0, symBinAddr: 0x100007DEC, symSize: 0x30 }
  - { offsetInCU: 0xCD9E, offset: 0xCD9E, size: 0x8, addend: 0x0, symName: __ZNSt3__14nextB8ue170006INS_21__tree_const_iteratorINS_12basic_stringIcNS_11char_traitsIcEENS_9allocatorIcEEEEPNS_11__tree_nodeIS7_PvEElEEEENS_9enable_ifIXsr29__has_input_iterator_categoryIT_EE5valueESE_E4typeESE_NS_15iterator_traitsISE_E15difference_typeE, symObjAddr: 0x56B4, symBinAddr: 0x1000087D0, symSize: 0x3C }
  - { offsetInCU: 0xCDE1, offset: 0xCDE1, size: 0x8, addend: 0x0, symName: __ZNSt3__1ltB8ue170006IcNS_11char_traitsIcEENS_9allocatorIcEEEEbRKNS_12basic_stringIT_T0_T1_EESB_, symObjAddr: 0x57B4, symBinAddr: 0x1000088D0, symSize: 0x38 }
  - { offsetInCU: 0xCE39, offset: 0xCE39, size: 0x8, addend: 0x0, symName: __ZNSt3__13minB8ue170006ImEERKT_S3_S3_, symObjAddr: 0x5AD8, symBinAddr: 0x100008BF4, symSize: 0x2C }
  - { offsetInCU: 0xCE7C, offset: 0xCE7C, size: 0x8, addend: 0x0, symName: __ZNSt3__112__to_addressB8ue170006IKcEEPT_S3_, symObjAddr: 0x5C0C, symBinAddr: 0x100008D28, symSize: 0x14 }
  - { offsetInCU: 0xCEE4, offset: 0xCEE4, size: 0x8, addend: 0x0, symName: __ZNSt3__13minB8ue170006ImNS_6__lessIvvEEEERKT_S5_S5_T0_, symObjAddr: 0x5CD8, symBinAddr: 0x100008DF4, symSize: 0x54 }
  - { offsetInCU: 0xCFB4, offset: 0xCFB4, size: 0x8, addend: 0x0, symName: __ZNSt3__116__tree_prev_iterB8ue170006IPNS_16__tree_node_baseIPvEEPNS_15__tree_end_nodeIS4_EEEET_T0_, symObjAddr: 0x5DC8, symBinAddr: 0x100008EE4, symSize: 0xB8 }
  - { offsetInCU: 0xD000, offset: 0xD000, size: 0x8, addend: 0x0, symName: __ZNSt3__110__tree_maxB8ue170006IPNS_16__tree_node_baseIPvEEEET_S5_, symObjAddr: 0x5E80, symBinAddr: 0x100008F9C, symSize: 0x40 }
  - { offsetInCU: 0xD035, offset: 0xD035, size: 0x8, addend: 0x0, symName: __ZNSt3__120__tree_is_left_childB8ue170006IPNS_16__tree_node_baseIPvEEEEbT_, symObjAddr: 0x5EC0, symBinAddr: 0x100008FDC, symSize: 0x2C }
  - { offsetInCU: 0xD06A, offset: 0xD06A, size: 0x8, addend: 0x0, symName: __ZNSt3__121__convert_to_integralB8ue170006El, symObjAddr: 0x5F60, symBinAddr: 0x10000907C, symSize: 0x14 }
  - { offsetInCU: 0xD096, offset: 0xD096, size: 0x8, addend: 0x0, symName: __ZNSt3__19__advanceB8ue170006INS_21__tree_const_iteratorINS_12basic_stringIcNS_11char_traitsIcEENS_9allocatorIcEEEEPNS_11__tree_nodeIS7_PvEElEEEEvRT_NS_15iterator_traitsISD_E15difference_typeENS_26bidirectional_iterator_tagE, symObjAddr: 0x5F74, symBinAddr: 0x100009090, symSize: 0xA4 }
  - { offsetInCU: 0xD0FD, offset: 0xD0FD, size: 0x8, addend: 0x0, symName: __ZNSt3__117__libcpp_allocateB8ue170006Emm, symObjAddr: 0x622C, symBinAddr: 0x100009348, symSize: 0x28 }
  - { offsetInCU: 0xD13A, offset: 0xD13A, size: 0x8, addend: 0x0, symName: __ZNSt3__121__libcpp_operator_newB8ue170006IJmEEEPvDpT_, symObjAddr: 0x6274, symBinAddr: 0x100009390, symSize: 0x24 }
  - { offsetInCU: 0xD173, offset: 0xD173, size: 0x8, addend: 0x0, symName: __ZNSt3__127__tree_balance_after_insertB8ue170006IPNS_16__tree_node_baseIPvEEEEvT_S5_, symObjAddr: 0x649C, symBinAddr: 0x1000095B8, symSize: 0x27C }
  - { offsetInCU: 0xD1EF, offset: 0xD1EF, size: 0x8, addend: 0x0, symName: __ZNSt3__118__tree_left_rotateB8ue170006IPNS_16__tree_node_baseIPvEEEEvT_, symObjAddr: 0x6740, symBinAddr: 0x10000985C, symSize: 0xEC }
  - { offsetInCU: 0xD231, offset: 0xD231, size: 0x8, addend: 0x0, symName: __ZNSt3__119__tree_right_rotateB8ue170006IPNS_16__tree_node_baseIPvEEEEvT_, symObjAddr: 0x682C, symBinAddr: 0x100009948, symSize: 0xCC }
  - { offsetInCU: 0xD273, offset: 0xD273, size: 0x8, addend: 0x0, symName: __ZNSt3__116__tree_next_iterB8ue170006IPNS_15__tree_end_nodeIPNS_16__tree_node_baseIPvEEEES5_EET_T0_, symObjAddr: 0x6B18, symBinAddr: 0x100009C34, symSize: 0x80 }
  - { offsetInCU: 0xD2B1, offset: 0xD2B1, size: 0x8, addend: 0x0, symName: __ZNSt3__110__tree_minB8ue170006IPNS_16__tree_node_baseIPvEEEET_S5_, symObjAddr: 0x6B98, symBinAddr: 0x100009CB4, symSize: 0x40 }
  - { offsetInCU: 0xD2E6, offset: 0xD2E6, size: 0x8, addend: 0x0, symName: __ZNSt3__116__pad_and_outputB8ue170006IcNS_11char_traitsIcEEEENS_19ostreambuf_iteratorIT_T0_EES6_PKS4_S8_S8_RNS_8ios_baseES4_, symObjAddr: 0x7578, symBinAddr: 0x10000A694, symSize: 0x248 }
  - { offsetInCU: 0xD3B5, offset: 0xD3B5, size: 0x8, addend: 0x0, symName: __ZNSt3__19use_facetB8ue170006INS_5ctypeIcEEEERKT_RKNS_6localeE, symObjAddr: 0x7C18, symBinAddr: 0x10000AD34, symSize: 0x2C }
  - { offsetInCU: 0xD793, offset: 0xD793, size: 0x8, addend: 0x0, symName: __ZNSt3__118__constexpr_strlenB8ue170006EPKc, symObjAddr: 0x7CB0, symBinAddr: 0x10000ADCC, symSize: 0x24 }
  - { offsetInCU: 0xD7DB, offset: 0xD7DB, size: 0x8, addend: 0x0, symName: __ZNSt3__18distanceB8ue170006INS_16__deque_iteratorINS_12basic_stringIcNS_11char_traitsIcEENS_9allocatorIcEEEEPKS7_RS8_PKS9_lLl170EEEEENS_15iterator_traitsIT_E15difference_typeESF_SF_, symObjAddr: 0x8930, symBinAddr: 0x10000BA4C, symSize: 0x4C }
  - { offsetInCU: 0xD81E, offset: 0xD81E, size: 0x8, addend: 0x0, symName: __ZNSt3__1neB8ue170006ERKNS_5dequeINS_12basic_stringIcNS_11char_traitsIcEENS_9allocatorIcEEEENS4_IS6_EEE13__deque_rangeESB_, symObjAddr: 0x9198, symBinAddr: 0x10000C2B4, symSize: 0x34 }
  - { offsetInCU: 0xD85B, offset: 0xD85B, size: 0x8, addend: 0x0, symName: __ZNSt3__13maxB8ue170006ImEERKT_S3_S3_, symObjAddr: 0x9C44, symBinAddr: 0x10000CD60, symSize: 0x2C }
  - { offsetInCU: 0xD89E, offset: 0xD89E, size: 0x8, addend: 0x0, symName: __ZNSt3__14swapB8ue170006IPPNS_12basic_stringIcNS_11char_traitsIcEENS_9allocatorIcEEEEEEvRT_SA_, symObjAddr: 0xA44C, symBinAddr: 0x10000D568, symSize: 0x3C }
  - { offsetInCU: 0xD8EF, offset: 0xD8EF, size: 0x8, addend: 0x0, symName: __ZNSt3__14moveB8ue170006IPPNS_12basic_stringIcNS_11char_traitsIcEENS_9allocatorIcEEEES8_EET0_T_SA_S9_, symObjAddr: 0xA504, symBinAddr: 0x10000D620, symSize: 0x40 }
  - { offsetInCU: 0xD949, offset: 0xD949, size: 0x8, addend: 0x0, symName: __ZNSt3__16__moveB8ue170006INS_17_ClassicAlgPolicyEPPNS_12basic_stringIcNS_11char_traitsIcEENS_9allocatorIcEEEES9_S9_EENS_4pairIT0_T2_EESB_T1_SC_, symObjAddr: 0xA60C, symBinAddr: 0x10000D728, symSize: 0x44 }
  - { offsetInCU: 0xD9B5, offset: 0xD9B5, size: 0x8, addend: 0x0, symName: __ZNSt3__123__dispatch_copy_or_moveB8ue170006INS_17_ClassicAlgPolicyENS_11__move_loopIS1_EENS_14__move_trivialEPPNS_12basic_stringIcNS_11char_traitsIcEENS_9allocatorIcEEEESC_SC_EENS_4pairIT2_T4_EESE_T3_SF_, symObjAddr: 0xA650, symBinAddr: 0x10000D76C, symSize: 0x44 }
  - { offsetInCU: 0xDA33, offset: 0xDA33, size: 0x8, addend: 0x0, symName: __ZNSt3__121__unwrap_and_dispatchB8ue170006INS_10__overloadINS_11__move_loopINS_17_ClassicAlgPolicyEEENS_14__move_trivialEEEPPNS_12basic_stringIcNS_11char_traitsIcEENS_9allocatorIcEEEESE_SE_Li0EEENS_4pairIT0_T2_EESG_T1_SH_, symObjAddr: 0xA694, symBinAddr: 0x10000D7B0, symSize: 0xB4 }
  - { offsetInCU: 0xDAC1, offset: 0xDAC1, size: 0x8, addend: 0x0, symName: __ZNSt3__114__unwrap_rangeB8ue170006IPPNS_12basic_stringIcNS_11char_traitsIcEENS_9allocatorIcEEEES8_EENS_4pairIT0_SA_EET_SC_, symObjAddr: 0xA748, symBinAddr: 0x10000D864, symSize: 0x60 }
  - { offsetInCU: 0xDC3C, offset: 0xDC3C, size: 0x8, addend: 0x0, symName: __ZNSt3__113__unwrap_iterB8ue170006IPPNS_12basic_stringIcNS_11char_traitsIcEENS_9allocatorIcEEEENS_18__unwrap_iter_implIS8_Lb1EEELi0EEEDTclsrT0_8__unwrapclsr3stdE7declvalIT_EEEESC_, symObjAddr: 0xA7F0, symBinAddr: 0x10000D90C, symSize: 0x24 }
  - { offsetInCU: 0xDC80, offset: 0xDC80, size: 0x8, addend: 0x0, symName: __ZNSt3__19make_pairB8ue170006IPPNS_12basic_stringIcNS_11char_traitsIcEENS_9allocatorIcEEEES8_EENS_4pairINS_18__unwrap_ref_decayIT_E4typeENSA_IT0_E4typeEEEOSB_OSE_, symObjAddr: 0xA814, symBinAddr: 0x10000D930, symSize: 0x38 }
  - { offsetInCU: 0xDCCF, offset: 0xDCCF, size: 0x8, addend: 0x0, symName: __ZNSt3__114__rewrap_rangeB8ue170006IPPNS_12basic_stringIcNS_11char_traitsIcEENS_9allocatorIcEEEES8_EET_S9_T0_, symObjAddr: 0xA84C, symBinAddr: 0x10000D968, symSize: 0x2C }
  - { offsetInCU: 0xDD1B, offset: 0xDD1B, size: 0x8, addend: 0x0, symName: __ZNSt3__113__rewrap_iterB8ue170006IPPNS_12basic_stringIcNS_11char_traitsIcEENS_9allocatorIcEEEES8_NS_18__unwrap_iter_implIS8_Lb1EEEEET_SB_T0_, symObjAddr: 0xA878, symBinAddr: 0x10000D994, symSize: 0x50 }
  - { offsetInCU: 0xDD70, offset: 0xDD70, size: 0x8, addend: 0x0, symName: __ZNSt3__119__copy_trivial_implB8ue170006IPNS_12basic_stringIcNS_11char_traitsIcEENS_9allocatorIcEEEES7_EENS_4pairIPT_PT0_EESA_SA_SC_, symObjAddr: 0xA8C8, symBinAddr: 0x10000D9E4, symSize: 0x80 }
  - { offsetInCU: 0xDDD8, offset: 0xDDD8, size: 0x8, addend: 0x0, symName: __ZNSt3__119__constexpr_memmoveB8ue170006IPNS_12basic_stringIcNS_11char_traitsIcEENS_9allocatorIcEEEES7_Li0EEEPT_S9_PT0_NS_15__element_countE, symObjAddr: 0xA948, symBinAddr: 0x10000DA64, symSize: 0xA0 }
  - { offsetInCU: 0xDE46, offset: 0xDE46, size: 0x8, addend: 0x0, symName: __ZNSt3__19make_pairB8ue170006IRPPNS_12basic_stringIcNS_11char_traitsIcEENS_9allocatorIcEEEES8_EENS_4pairINS_18__unwrap_ref_decayIT_E4typeENSB_IT0_E4typeEEEOSC_OSF_, symObjAddr: 0xA9E8, symBinAddr: 0x10000DB04, symSize: 0x38 }
  - { offsetInCU: 0xDEE8, offset: 0xDEE8, size: 0x8, addend: 0x0, symName: __ZNSt3__18distanceB8ue170006INS_13move_iteratorIPPNS_12basic_stringIcNS_11char_traitsIcEENS_9allocatorIcEEEEEEEENS_15iterator_traitsIT_E15difference_typeESC_SC_, symObjAddr: 0xABE8, symBinAddr: 0x10000DD04, symSize: 0x3C }
  - { offsetInCU: 0xDF2B, offset: 0xDF2B, size: 0x8, addend: 0x0, symName: __ZNSt3__110__distanceB8ue170006INS_13move_iteratorIPPNS_12basic_stringIcNS_11char_traitsIcEENS_9allocatorIcEEEEEEEENS_15iterator_traitsIT_E15difference_typeESC_SC_NS_26random_access_iterator_tagE, symObjAddr: 0xADEC, symBinAddr: 0x10000DF08, symSize: 0x30 }
  - { offsetInCU: 0xDF78, offset: 0xDF78, size: 0x8, addend: 0x0, symName: __ZNSt3__1miB8ue170006IPPNS_12basic_stringIcNS_11char_traitsIcEENS_9allocatorIcEEEES8_EENS_13move_iteratorIT_E15difference_typeERKSB_RKNS9_IT0_EE, symObjAddr: 0xAE1C, symBinAddr: 0x10000DF38, symSize: 0x48 }
  - { offsetInCU: 0xDFC7, offset: 0xDFC7, size: 0x8, addend: 0x0, symName: __ZNSt3__113move_backwardB8ue170006IPPNS_12basic_stringIcNS_11char_traitsIcEENS_9allocatorIcEEEES8_EET0_T_SA_S9_, symObjAddr: 0xAF8C, symBinAddr: 0x10000E0A8, symSize: 0x40 }
  - { offsetInCU: 0xE021, offset: 0xE021, size: 0x8, addend: 0x0, symName: __ZNSt3__115__move_backwardB8ue170006INS_17_ClassicAlgPolicyEPPNS_12basic_stringIcNS_11char_traitsIcEENS_9allocatorIcEEEES9_S9_EENS_4pairIT0_T2_EESB_T1_SC_, symObjAddr: 0xAFCC, symBinAddr: 0x10000E0E8, symSize: 0x44 }
  - { offsetInCU: 0xE08D, offset: 0xE08D, size: 0x8, addend: 0x0, symName: __ZNSt3__123__dispatch_copy_or_moveB8ue170006INS_17_ClassicAlgPolicyENS_20__move_backward_loopIS1_EENS_23__move_backward_trivialEPPNS_12basic_stringIcNS_11char_traitsIcEENS_9allocatorIcEEEESC_SC_EENS_4pairIT2_T4_EESE_T3_SF_, symObjAddr: 0xB010, symBinAddr: 0x10000E12C, symSize: 0x44 }
  - { offsetInCU: 0xE10B, offset: 0xE10B, size: 0x8, addend: 0x0, symName: __ZNSt3__121__unwrap_and_dispatchB8ue170006INS_10__overloadINS_20__move_backward_loopINS_17_ClassicAlgPolicyEEENS_23__move_backward_trivialEEEPPNS_12basic_stringIcNS_11char_traitsIcEENS_9allocatorIcEEEESE_SE_Li0EEENS_4pairIT0_T2_EESG_T1_SH_, symObjAddr: 0xB054, symBinAddr: 0x10000E170, symSize: 0xB4 }
  - { offsetInCU: 0xE21B, offset: 0xE21B, size: 0x8, addend: 0x0, symName: __ZNSt3__128__copy_backward_trivial_implB8ue170006IPNS_12basic_stringIcNS_11char_traitsIcEENS_9allocatorIcEEEES7_EENS_4pairIPT_PT0_EESA_SA_SC_, symObjAddr: 0xB150, symBinAddr: 0x10000E26C, symSize: 0x90 }
  - { offsetInCU: 0xE283, offset: 0xE283, size: 0x8, addend: 0x0, symName: __ZNSt3__19make_pairB8ue170006IRPPNS_12basic_stringIcNS_11char_traitsIcEENS_9allocatorIcEEEES9_EENS_4pairINS_18__unwrap_ref_decayIT_E4typeENSB_IT0_E4typeEEEOSC_OSF_, symObjAddr: 0xB1E0, symBinAddr: 0x10000E2FC, symSize: 0x38 }
  - { offsetInCU: 0xE2D2, offset: 0xE2D2, size: 0x8, addend: 0x0, symName: __ZNSt3__13maxB8ue170006ImNS_6__lessIvvEEEERKT_S5_S5_T0_, symObjAddr: 0xB218, symBinAddr: 0x10000E334, symSize: 0x54 }
  - { offsetInCU: 0xE32C, offset: 0xE32C, size: 0x8, addend: 0x0, symName: __ZNSt3__119__allocate_at_leastB8ue170006INS_9allocatorIPNS_12basic_stringIcNS_11char_traitsIcEENS1_IcEEEEEEEENS_19__allocation_resultINS_16allocator_traitsIT_E7pointerEEERSB_m, symObjAddr: 0xB37C, symBinAddr: 0x10000E498, symSize: 0x40 }
  - { offsetInCU: 0xE36F, offset: 0xE36F, size: 0x8, addend: 0x0, symName: __ZNSt3__1eqB8ue170006ERKNS_5dequeINS_12basic_stringIcNS_11char_traitsIcEENS_9allocatorIcEEEENS4_IS6_EEE13__deque_rangeESB_, symObjAddr: 0xB884, symBinAddr: 0x10000E9A0, symSize: 0x30 }
  - { offsetInCU: 0xE3AC, offset: 0xE3AC, size: 0x8, addend: 0x0, symName: __ZNSt3__110__distanceB8ue170006INS_16__deque_iteratorINS_12basic_stringIcNS_11char_traitsIcEENS_9allocatorIcEEEEPKS7_RS8_PKS9_lLl170EEEEENS_15iterator_traitsIT_E15difference_typeESF_SF_NS_26random_access_iterator_tagE, symObjAddr: 0xB9F0, symBinAddr: 0x10000EB0C, symSize: 0x38 }
  - { offsetInCU: 0xE3F9, offset: 0xE3F9, size: 0x8, addend: 0x0, symName: __ZNSt3__1miB8ue170006ERKNS_16__deque_iteratorINS_12basic_stringIcNS_11char_traitsIcEENS_9allocatorIcEEEEPKS6_RS7_PKS8_lLl170EEESE_, symObjAddr: 0xBA28, symBinAddr: 0x10000EB44, symSize: 0xB0 }
  - { offsetInCU: 0xE436, offset: 0xE436, size: 0x8, addend: 0x0, symName: __ZNSt3__1neB8ue170006ERKNS_16__deque_iteratorINS_12basic_stringIcNS_11char_traitsIcEENS_9allocatorIcEEEEPKS6_RS7_PKS8_lLl170EEESE_, symObjAddr: 0xBAD8, symBinAddr: 0x10000EBF4, symSize: 0x34 }
  - { offsetInCU: 0xE473, offset: 0xE473, size: 0x8, addend: 0x0, symName: __ZNSt3__1eqB8ue170006ERKNS_16__deque_iteratorINS_12basic_stringIcNS_11char_traitsIcEENS_9allocatorIcEEEEPKS6_RS7_PKS8_lLl170EEESE_, symObjAddr: 0xBB0C, symBinAddr: 0x10000EC28, symSize: 0x30 }
  - { offsetInCU: 0xF2FA, offset: 0xF2FA, size: 0x8, addend: 0x0, symName: __ZNSt3__17getlineB8ue170006IcNS_11char_traitsIcEENS_9allocatorIcEEEERNS_13basic_istreamIT_T0_EES9_RNS_12basic_stringIS6_S7_T1_EES6_, symObjAddr: 0xC8C0, symBinAddr: 0x10000F9DC, symSize: 0x234 }
  - { offsetInCU: 0xF841, offset: 0xF841, size: 0x8, addend: 0x0, symName: __ZNSt3__14swapB8ue170006IPP6AlumnoEEvRT_S5_, symObjAddr: 0xDE68, symBinAddr: 0x100010F84, symSize: 0x3C }
  - { offsetInCU: 0xF892, offset: 0xF892, size: 0x8, addend: 0x0, symName: __ZNSt3__14moveB8ue170006IPP6AlumnoS3_EET0_T_S5_S4_, symObjAddr: 0xDF4C, symBinAddr: 0x100011068, symSize: 0x40 }
  - { offsetInCU: 0xF8EC, offset: 0xF8EC, size: 0x8, addend: 0x0, symName: __ZNSt3__16__moveB8ue170006INS_17_ClassicAlgPolicyEPP6AlumnoS4_S4_EENS_4pairIT0_T2_EES6_T1_S7_, symObjAddr: 0xE054, symBinAddr: 0x100011170, symSize: 0x44 }
  - { offsetInCU: 0xF958, offset: 0xF958, size: 0x8, addend: 0x0, symName: __ZNSt3__123__dispatch_copy_or_moveB8ue170006INS_17_ClassicAlgPolicyENS_11__move_loopIS1_EENS_14__move_trivialEPP6AlumnoS7_S7_EENS_4pairIT2_T4_EES9_T3_SA_, symObjAddr: 0xE098, symBinAddr: 0x1000111B4, symSize: 0x44 }
  - { offsetInCU: 0xF9D6, offset: 0xF9D6, size: 0x8, addend: 0x0, symName: __ZNSt3__121__unwrap_and_dispatchB8ue170006INS_10__overloadINS_11__move_loopINS_17_ClassicAlgPolicyEEENS_14__move_trivialEEEPP6AlumnoS9_S9_Li0EEENS_4pairIT0_T2_EESB_T1_SC_, symObjAddr: 0xE0DC, symBinAddr: 0x1000111F8, symSize: 0xB4 }
  - { offsetInCU: 0xFA64, offset: 0xFA64, size: 0x8, addend: 0x0, symName: __ZNSt3__114__unwrap_rangeB8ue170006IPP6AlumnoS3_EENS_4pairIT0_S5_EET_S7_, symObjAddr: 0xE190, symBinAddr: 0x1000112AC, symSize: 0x60 }
  - { offsetInCU: 0xFB5D, offset: 0xFB5D, size: 0x8, addend: 0x0, symName: __ZNSt3__113__unwrap_iterB8ue170006IPP6AlumnoNS_18__unwrap_iter_implIS3_Lb1EEELi0EEEDTclsrT0_8__unwrapclsr3stdE7declvalIT_EEEES7_, symObjAddr: 0xE238, symBinAddr: 0x100011354, symSize: 0x24 }
  - { offsetInCU: 0xFBA1, offset: 0xFBA1, size: 0x8, addend: 0x0, symName: __ZNSt3__19make_pairB8ue170006IPP6AlumnoS3_EENS_4pairINS_18__unwrap_ref_decayIT_E4typeENS5_IT0_E4typeEEEOS6_OS9_, symObjAddr: 0xE25C, symBinAddr: 0x100011378, symSize: 0x38 }
  - { offsetInCU: 0xFBF0, offset: 0xFBF0, size: 0x8, addend: 0x0, symName: __ZNSt3__114__rewrap_rangeB8ue170006IPP6AlumnoS3_EET_S4_T0_, symObjAddr: 0xE294, symBinAddr: 0x1000113B0, symSize: 0x2C }
  - { offsetInCU: 0xFC3C, offset: 0xFC3C, size: 0x8, addend: 0x0, symName: __ZNSt3__113__rewrap_iterB8ue170006IPP6AlumnoS3_NS_18__unwrap_iter_implIS3_Lb1EEEEET_S6_T0_, symObjAddr: 0xE2C0, symBinAddr: 0x1000113DC, symSize: 0x50 }
  - { offsetInCU: 0xFC91, offset: 0xFC91, size: 0x8, addend: 0x0, symName: __ZNSt3__119__copy_trivial_implB8ue170006IP6AlumnoS2_EENS_4pairIPT_PT0_EES5_S5_S7_, symObjAddr: 0xE310, symBinAddr: 0x10001142C, symSize: 0x80 }
  - { offsetInCU: 0xFCF9, offset: 0xFCF9, size: 0x8, addend: 0x0, symName: __ZNSt3__119__constexpr_memmoveB8ue170006IP6AlumnoS2_Li0EEEPT_S4_PT0_NS_15__element_countE, symObjAddr: 0xE390, symBinAddr: 0x1000114AC, symSize: 0xA0 }
  - { offsetInCU: 0xFD67, offset: 0xFD67, size: 0x8, addend: 0x0, symName: __ZNSt3__19make_pairB8ue170006IRPP6AlumnoS3_EENS_4pairINS_18__unwrap_ref_decayIT_E4typeENS6_IT0_E4typeEEEOS7_OSA_, symObjAddr: 0xE430, symBinAddr: 0x10001154C, symSize: 0x38 }
  - { offsetInCU: 0xFE09, offset: 0xFE09, size: 0x8, addend: 0x0, symName: __ZNSt3__18distanceB8ue170006INS_13move_iteratorIPP6AlumnoEEEENS_15iterator_traitsIT_E15difference_typeES7_S7_, symObjAddr: 0xE630, symBinAddr: 0x10001174C, symSize: 0x3C }
  - { offsetInCU: 0xFE4C, offset: 0xFE4C, size: 0x8, addend: 0x0, symName: __ZNSt3__110__distanceB8ue170006INS_13move_iteratorIPP6AlumnoEEEENS_15iterator_traitsIT_E15difference_typeES7_S7_NS_26random_access_iterator_tagE, symObjAddr: 0xE834, symBinAddr: 0x100011950, symSize: 0x30 }
  - { offsetInCU: 0xFE99, offset: 0xFE99, size: 0x8, addend: 0x0, symName: __ZNSt3__1miB8ue170006IPP6AlumnoS3_EENS_13move_iteratorIT_E15difference_typeERKS6_RKNS4_IT0_EE, symObjAddr: 0xE864, symBinAddr: 0x100011980, symSize: 0x48 }
  - { offsetInCU: 0xFEE8, offset: 0xFEE8, size: 0x8, addend: 0x0, symName: __ZNSt3__113move_backwardB8ue170006IPP6AlumnoS3_EET0_T_S5_S4_, symObjAddr: 0xE9DC, symBinAddr: 0x100011AF8, symSize: 0x40 }
  - { offsetInCU: 0xFF42, offset: 0xFF42, size: 0x8, addend: 0x0, symName: __ZNSt3__115__move_backwardB8ue170006INS_17_ClassicAlgPolicyEPP6AlumnoS4_S4_EENS_4pairIT0_T2_EES6_T1_S7_, symObjAddr: 0xEA1C, symBinAddr: 0x100011B38, symSize: 0x44 }
  - { offsetInCU: 0xFFAE, offset: 0xFFAE, size: 0x8, addend: 0x0, symName: __ZNSt3__123__dispatch_copy_or_moveB8ue170006INS_17_ClassicAlgPolicyENS_20__move_backward_loopIS1_EENS_23__move_backward_trivialEPP6AlumnoS7_S7_EENS_4pairIT2_T4_EES9_T3_SA_, symObjAddr: 0xEA60, symBinAddr: 0x100011B7C, symSize: 0x44 }
  - { offsetInCU: 0x1002C, offset: 0x1002C, size: 0x8, addend: 0x0, symName: __ZNSt3__121__unwrap_and_dispatchB8ue170006INS_10__overloadINS_20__move_backward_loopINS_17_ClassicAlgPolicyEEENS_23__move_backward_trivialEEEPP6AlumnoS9_S9_Li0EEENS_4pairIT0_T2_EESB_T1_SC_, symObjAddr: 0xEAA4, symBinAddr: 0x100011BC0, symSize: 0xB4 }
  - { offsetInCU: 0x100BA, offset: 0x100BA, size: 0x8, addend: 0x0, symName: __ZNSt3__128__copy_backward_trivial_implB8ue170006IP6AlumnoS2_EENS_4pairIPT_PT0_EES5_S5_S7_, symObjAddr: 0xEBA0, symBinAddr: 0x100011CBC, symSize: 0x90 }
  - { offsetInCU: 0x10122, offset: 0x10122, size: 0x8, addend: 0x0, symName: __ZNSt3__19make_pairB8ue170006IRPP6AlumnoS4_EENS_4pairINS_18__unwrap_ref_decayIT_E4typeENS6_IT0_E4typeEEEOS7_OSA_, symObjAddr: 0xEC30, symBinAddr: 0x100011D4C, symSize: 0x38 }
  - { offsetInCU: 0x10171, offset: 0x10171, size: 0x8, addend: 0x0, symName: __ZNSt3__119__allocate_at_leastB8ue170006INS_9allocatorIP6AlumnoEEEENS_19__allocation_resultINS_16allocator_traitsIT_E7pointerEEERS7_m, symObjAddr: 0xED78, symBinAddr: 0x100011E94, symSize: 0x40 }
  - { offsetInCU: 0x101B4, offset: 0x101B4, size: 0x8, addend: 0x0, symName: __ZNSt3__1miB8ue170006ERKNS_16__deque_iteratorI6AlumnoPKS1_RS2_PKS3_lLl28EEES9_, symObjAddr: 0xFCBC, symBinAddr: 0x100012DD8, symSize: 0xB0 }
  - { offsetInCU: 0x101F1, offset: 0x101F1, size: 0x8, addend: 0x0, symName: __ZNSt3__14copyB8ue170006INS_16__deque_iteratorI6AlumnoPKS2_RS3_PKS4_lLl28EEENS1_IS2_PS2_RS2_PS9_lLl28EEEEET0_T_SE_SD_, symObjAddr: 0xFDAC, symBinAddr: 0x100012EC8, symSize: 0x78 }
  - { offsetInCU: 0x1024B, offset: 0x1024B, size: 0x8, addend: 0x0, symName: __ZNSt3__16__copyB8ue170006INS_17_ClassicAlgPolicyENS_16__deque_iteratorI6AlumnoPKS3_RS4_PKS5_lLl28EEES9_NS2_IS3_PS3_RS3_PSA_lLl28EEEEENS_4pairIT0_T2_EESF_T1_SG_, symObjAddr: 0x103C0, symBinAddr: 0x1000134DC, symSize: 0x64 }
  - { offsetInCU: 0x102B7, offset: 0x102B7, size: 0x8, addend: 0x0, symName: __ZNSt3__123__dispatch_copy_or_moveB8ue170006INS_17_ClassicAlgPolicyENS_11__copy_loopIS1_EENS_14__copy_trivialENS_16__deque_iteratorI6AlumnoPKS6_RS7_PKS8_lLl28EEESC_NS5_IS6_PS6_RS6_PSD_lLl28EEEEENS_4pairIT2_T4_EESI_T3_SJ_, symObjAddr: 0x10424, symBinAddr: 0x100013540, symSize: 0x64 }
  - { offsetInCU: 0x10335, offset: 0x10335, size: 0x8, addend: 0x0, symName: __ZNSt3__121__unwrap_and_dispatchB8ue170006INS_10__overloadINS_11__copy_loopINS_17_ClassicAlgPolicyEEENS_14__copy_trivialEEENS_16__deque_iteratorI6AlumnoPKS8_RS9_PKSA_lLl28EEESE_NS7_IS8_PS8_RS8_PSF_lLl28EEELi0EEENS_4pairIT0_T2_EESK_T1_SL_, symObjAddr: 0x10488, symBinAddr: 0x1000135A4, symSize: 0x12C }
  - { offsetInCU: 0x103C5, offset: 0x103C5, size: 0x8, addend: 0x0, symName: __ZNSt3__114__unwrap_rangeB8ue170006INS_16__deque_iteratorI6AlumnoPKS2_RS3_PKS4_lLl28EEES8_EENS_4pairIT0_SA_EET_SC_, symObjAddr: 0x105B4, symBinAddr: 0x1000136D0, symSize: 0x84 }
  - { offsetInCU: 0x104BE, offset: 0x104BE, size: 0x8, addend: 0x0, symName: __ZNSt3__113__unwrap_iterB8ue170006INS_16__deque_iteratorI6AlumnoPS2_RS2_PS3_lLl28EEENS_18__unwrap_iter_implIS6_Lb0EEELi0EEEDTclsrT0_8__unwrapclsr3stdE7declvalIT_EEEESA_, symObjAddr: 0x106C0, symBinAddr: 0x1000137DC, symSize: 0x44 }
  - { offsetInCU: 0x10502, offset: 0x10502, size: 0x8, addend: 0x0, symName: __ZNSt3__19make_pairB8ue170006INS_16__deque_iteratorI6AlumnoPKS2_RS3_PKS4_lLl28EEENS1_IS2_PS2_RS2_PS9_lLl28EEEEENS_4pairINS_18__unwrap_ref_decayIT_E4typeENSE_IT0_E4typeEEEOSF_OSI_, symObjAddr: 0x10704, symBinAddr: 0x100013820, symSize: 0x38 }
  - { offsetInCU: 0x10551, offset: 0x10551, size: 0x8, addend: 0x0, symName: __ZNSt3__114__rewrap_rangeB8ue170006INS_16__deque_iteratorI6AlumnoPKS2_RS3_PKS4_lLl28EEES8_EET_S9_T0_, symObjAddr: 0x1073C, symBinAddr: 0x100013858, symSize: 0x5C }
  - { offsetInCU: 0x1059D, offset: 0x1059D, size: 0x8, addend: 0x0, symName: __ZNSt3__113__rewrap_iterB8ue170006INS_16__deque_iteratorI6AlumnoPS2_RS2_PS3_lLl28EEES6_NS_18__unwrap_iter_implIS6_Lb0EEEEET_S9_T0_, symObjAddr: 0x10798, symBinAddr: 0x1000138B4, symSize: 0x88 }
  - { offsetInCU: 0x105F2, offset: 0x105F2, size: 0x8, addend: 0x0, symName: __ZNSt3__19make_pairB8ue170006INS_16__deque_iteratorI6AlumnoPKS2_RS3_PKS4_lLl28EEES8_EENS_4pairINS_18__unwrap_ref_decayIT_E4typeENSA_IT0_E4typeEEEOSB_OSE_, symObjAddr: 0x10820, symBinAddr: 0x10001393C, symSize: 0x38 }
  - { offsetInCU: 0x10641, offset: 0x10641, size: 0x8, addend: 0x0, symName: __ZNSt3__113__unwrap_iterB8ue170006INS_16__deque_iteratorI6AlumnoPKS2_RS3_PKS4_lLl28EEENS_18__unwrap_iter_implIS8_Lb0EEELi0EEEDTclsrT0_8__unwrapclsr3stdE7declvalIT_EEEESC_, symObjAddr: 0x10858, symBinAddr: 0x100013974, symSize: 0x44 }
  - { offsetInCU: 0x1077A, offset: 0x1077A, size: 0x8, addend: 0x0, symName: __ZNSt3__118__for_each_segmentB8ue170006INS_16__deque_iteratorI6AlumnoPKS2_RS3_PKS4_lLl28EEENS_11__copy_loopINS_17_ClassicAlgPolicyEE12_CopySegmentIS8_NS1_IS2_PS2_RS2_PSD_lLl28EEEEEEEvT_SI_T0_, symObjAddr: 0x10930, symBinAddr: 0x100013A4C, symSize: 0x174 }
  - { offsetInCU: 0x107ED, offset: 0x107ED, size: 0x8, addend: 0x0, symName: __ZNSt3__19make_pairB8ue170006IRNS_16__deque_iteratorI6AlumnoPKS2_RS3_PKS4_lLl28EEENS1_IS2_PS2_RS2_PSA_lLl28EEEEENS_4pairINS_18__unwrap_ref_decayIT_E4typeENSF_IT0_E4typeEEEOSG_OSJ_, symObjAddr: 0x10AD8, symBinAddr: 0x100013BF4, symSize: 0x38 }
  - { offsetInCU: 0x1083C, offset: 0x1083C, size: 0x8, addend: 0x0, symName: __ZNSt3__16__copyB8ue170006INS_17_ClassicAlgPolicyEPK6AlumnoS4_NS_16__deque_iteratorIS2_PS2_RS2_PS6_lLl28EEEEENS_4pairIT0_T2_EESB_T1_SC_, symObjAddr: 0x10BDC, symBinAddr: 0x100013CF8, symSize: 0x44 }
  - { offsetInCU: 0x108A4, offset: 0x108A4, size: 0x8, addend: 0x0, symName: __ZNSt3__123__dispatch_copy_or_moveB8ue170006INS_17_ClassicAlgPolicyENS_11__copy_loopIS1_EENS_14__copy_trivialEPK6AlumnoS7_NS_16__deque_iteratorIS5_PS5_RS5_PS9_lLl28EEEEENS_4pairIT2_T4_EESE_T3_SF_, symObjAddr: 0x10C20, symBinAddr: 0x100013D3C, symSize: 0x44 }
  - { offsetInCU: 0x10922, offset: 0x10922, size: 0x8, addend: 0x0, symName: __ZNSt3__121__unwrap_and_dispatchB8ue170006INS_10__overloadINS_11__copy_loopINS_17_ClassicAlgPolicyEEENS_14__copy_trivialEEEPK6AlumnoS9_NS_16__deque_iteratorIS7_PS7_RS7_PSB_lLl28EEELi0EEENS_4pairIT0_T2_EESG_T1_SH_, symObjAddr: 0x10C64, symBinAddr: 0x100013D80, symSize: 0xF0 }
  - { offsetInCU: 0x109B1, offset: 0x109B1, size: 0x8, addend: 0x0, symName: __ZNSt3__114__unwrap_rangeB8ue170006IPK6AlumnoS3_EENS_4pairIT0_S5_EET_S7_, symObjAddr: 0x10D54, symBinAddr: 0x100013E70, symSize: 0x60 }
  - { offsetInCU: 0x10AAA, offset: 0x10AAA, size: 0x8, addend: 0x0, symName: __ZNSt3__19make_pairB8ue170006IPK6AlumnoNS_16__deque_iteratorIS1_PS1_RS1_PS5_lLl28EEEEENS_4pairINS_18__unwrap_ref_decayIT_E4typeENSA_IT0_E4typeEEEOSB_OSE_, symObjAddr: 0x10F20, symBinAddr: 0x10001403C, symSize: 0x38 }
  - { offsetInCU: 0x10AF9, offset: 0x10AF9, size: 0x8, addend: 0x0, symName: __ZNSt3__114__rewrap_rangeB8ue170006IPK6AlumnoS3_EET_S4_T0_, symObjAddr: 0x10F58, symBinAddr: 0x100014074, symSize: 0x2C }
  - { offsetInCU: 0x10B45, offset: 0x10B45, size: 0x8, addend: 0x0, symName: __ZNSt3__19make_pairB8ue170006IPK6AlumnoS3_EENS_4pairINS_18__unwrap_ref_decayIT_E4typeENS5_IT0_E4typeEEEOS6_OS9_, symObjAddr: 0x10F84, symBinAddr: 0x1000140A0, symSize: 0x38 }
  - { offsetInCU: 0x10B94, offset: 0x10B94, size: 0x8, addend: 0x0, symName: __ZNSt3__113__unwrap_iterB8ue170006IPK6AlumnoNS_18__unwrap_iter_implIS3_Lb1EEELi0EEEDTclsrT0_8__unwrapclsr3stdE7declvalIT_EEEES7_, symObjAddr: 0x10FBC, symBinAddr: 0x1000140D8, symSize: 0x24 }
  - { offsetInCU: 0x10CD8, offset: 0x10CD8, size: 0x8, addend: 0x0, symName: __ZNSt3__112__to_addressB8ue170006IK6AlumnoEEPT_S4_, symObjAddr: 0x11074, symBinAddr: 0x100014190, symSize: 0x14 }
  - { offsetInCU: 0x10DB9, offset: 0x10DB9, size: 0x8, addend: 0x0, symName: __ZNSt3__13minB8ue170006IlEERKT_S3_S3_, symObjAddr: 0x110D4, symBinAddr: 0x1000141F0, symSize: 0x2C }
  - { offsetInCU: 0x10DFC, offset: 0x10DFC, size: 0x8, addend: 0x0, symName: __ZNSt3__16__copyB8ue170006INS_17_ClassicAlgPolicyEPK6AlumnoS4_PS2_EENS_4pairIT0_T2_EES7_T1_S8_, symObjAddr: 0x11100, symBinAddr: 0x10001421C, symSize: 0x44 }
  - { offsetInCU: 0x10E64, offset: 0x10E64, size: 0x8, addend: 0x0, symName: __ZNSt3__13minB8ue170006IlNS_6__lessIvvEEEERKT_S5_S5_T0_, symObjAddr: 0x111E0, symBinAddr: 0x1000142FC, symSize: 0x54 }
  - { offsetInCU: 0x10EBE, offset: 0x10EBE, size: 0x8, addend: 0x0, symName: __ZNSt3__123__dispatch_copy_or_moveB8ue170006INS_17_ClassicAlgPolicyENS_11__copy_loopIS1_EENS_14__copy_trivialEPK6AlumnoS7_PS5_EENS_4pairIT2_T4_EESA_T3_SB_, symObjAddr: 0x11268, symBinAddr: 0x100014384, symSize: 0x44 }
  - { offsetInCU: 0x10F3C, offset: 0x10F3C, size: 0x8, addend: 0x0, symName: __ZNSt3__121__unwrap_and_dispatchB8ue170006INS_10__overloadINS_11__copy_loopINS_17_ClassicAlgPolicyEEENS_14__copy_trivialEEEPK6AlumnoS9_PS7_Li0EEENS_4pairIT0_T2_EESC_T1_SD_, symObjAddr: 0x112AC, symBinAddr: 0x1000143C8, symSize: 0xB4 }
  - { offsetInCU: 0x11077, offset: 0x11077, size: 0x8, addend: 0x0, symName: __ZNSt3__113__unwrap_iterB8ue170006IP6AlumnoNS_18__unwrap_iter_implIS2_Lb1EEELi0EEEDTclsrT0_8__unwrapclsr3stdE7declvalIT_EEEES6_, symObjAddr: 0x113E8, symBinAddr: 0x100014504, symSize: 0x24 }
  - { offsetInCU: 0x110BB, offset: 0x110BB, size: 0x8, addend: 0x0, symName: __ZNSt3__19make_pairB8ue170006IPK6AlumnoPS1_EENS_4pairINS_18__unwrap_ref_decayIT_E4typeENS6_IT0_E4typeEEEOS7_OSA_, symObjAddr: 0x1140C, symBinAddr: 0x100014528, symSize: 0x38 }
  - { offsetInCU: 0x1110A, offset: 0x1110A, size: 0x8, addend: 0x0, symName: __ZNSt3__113__rewrap_iterB8ue170006IP6AlumnoS2_NS_18__unwrap_iter_implIS2_Lb1EEEEET_S5_T0_, symObjAddr: 0x11444, symBinAddr: 0x100014560, symSize: 0x50 }
  - { offsetInCU: 0x1115F, offset: 0x1115F, size: 0x8, addend: 0x0, symName: __ZNSt3__111__tree_leafB8ue170006IPNS_16__tree_node_baseIPvEEEET_S5_, symObjAddr: 0x11C2C, symBinAddr: 0x100014D48, symSize: 0x70 }
  - { offsetInCU: 0x111E7, offset: 0x111E7, size: 0x8, addend: 0x0, symName: __ZNSt3__113__rewrap_iterB8ue170006IPK6AlumnoS3_NS_18__unwrap_iter_implIS3_Lb1EEEEET_S6_T0_, symObjAddr: 0x11F40, symBinAddr: 0x10001505C, symSize: 0x50 }
  - { offsetInCU: 0x11284, offset: 0x11284, size: 0x8, addend: 0x0, symName: __ZNSt3__113__rewrap_iterB8ue170006INS_16__deque_iteratorI6AlumnoPKS2_RS3_PKS4_lLl28EEES8_NS_18__unwrap_iter_implIS8_Lb0EEEEET_SB_T0_, symObjAddr: 0x1209C, symBinAddr: 0x1000151B8, symSize: 0x88 }
  - { offsetInCU: 0x112D9, offset: 0x112D9, size: 0x8, addend: 0x0, symName: __ZNSt3__1neB8ue170006ERKNS_5dequeI6AlumnoNS_9allocatorIS1_EEE13__deque_rangeES7_, symObjAddr: 0x128C0, symBinAddr: 0x1000159DC, symSize: 0x34 }
  - { offsetInCU: 0x11316, offset: 0x11316, size: 0x8, addend: 0x0, symName: __ZNSt3__1eqB8ue170006ERKNS_5dequeI6AlumnoNS_9allocatorIS1_EEE13__deque_rangeES7_, symObjAddr: 0x12F0C, symBinAddr: 0x100016028, symSize: 0x30 }
  - { offsetInCU: 0x11353, offset: 0x11353, size: 0x8, addend: 0x0, symName: __ZNSt3__1neB8ue170006ERKNS_16__deque_iteratorI6AlumnoPKS1_RS2_PKS3_lLl28EEES9_, symObjAddr: 0x13238, symBinAddr: 0x100016354, symSize: 0x34 }
  - { offsetInCU: 0x11390, offset: 0x11390, size: 0x8, addend: 0x0, symName: __ZNSt3__1eqB8ue170006ERKNS_16__deque_iteratorI6AlumnoPKS1_RS2_PKS3_lLl28EEES9_, symObjAddr: 0x1326C, symBinAddr: 0x100016388, symSize: 0x30 }
  - { offsetInCU: 0x115CC, offset: 0x115CC, size: 0x8, addend: 0x0, symName: __ZSt28__throw_bad_array_new_lengthB8ue170006v, symObjAddr: 0x61F8, symBinAddr: 0x100009314, symSize: 0x34 }
  - { offsetInCU: 0x145B2, offset: 0x145B2, size: 0x8, addend: 0x0, symName: _main, symObjAddr: 0x0, symBinAddr: 0x10000311C, symSize: 0x2E8 }
  - { offsetInCU: 0x14666, offset: 0x14666, size: 0x8, addend: 0x0, symName: __ZNSt3__15queueINS_12basic_stringIcNS_11char_traitsIcEENS_9allocatorIcEEEENS_5dequeIS6_NS4_IS6_EEEEEC1B8ue170006Ev, symObjAddr: 0x2FC, symBinAddr: 0x100003418, symSize: 0x2C }
  - { offsetInCU: 0x146BD, offset: 0x146BD, size: 0x8, addend: 0x0, symName: __ZNSt3__15queueI6AlumnoNS_5dequeIS1_NS_9allocatorIS1_EEEEEC1B8ue170006Ev, symObjAddr: 0x328, symBinAddr: 0x100003444, symSize: 0x2C }
  - { offsetInCU: 0x146E6, offset: 0x146E6, size: 0x8, addend: 0x0, symName: __Z16registrarAlumnosRNSt3__15queueI6AlumnoNS_5dequeIS1_NS_9allocatorIS1_EEEEEE, symObjAddr: 0x39C, symBinAddr: 0x1000034B8, symSize: 0x178 }
  - { offsetInCU: 0x1471C, offset: 0x1471C, size: 0x8, addend: 0x0, symName: __Z13CreateWebsiteRNSt3__15queueINS_12basic_stringIcNS_11char_traitsIcEENS_9allocatorIcEEEENS_5dequeIS6_NS4_IS6_EEEEEE, symObjAddr: 0x514, symBinAddr: 0x100003630, symSize: 0x104 }
  - { offsetInCU: 0x14753, offset: 0x14753, size: 0x8, addend: 0x0, symName: __ZNSt3__112basic_stringIcNS_11char_traitsIcEENS_9allocatorIcEEEC1B8ue170006Ev, symObjAddr: 0x618, symBinAddr: 0x100003734, symSize: 0x2C }
  - { offsetInCU: 0x1477C, offset: 0x1477C, size: 0x8, addend: 0x0, symName: __Z18AskUserAndPasswordRNSt3__112basic_stringIcNS_11char_traitsIcEENS_9allocatorIcEEEES6_, symObjAddr: 0x644, symBinAddr: 0x100003760, symSize: 0x80 }
  - { offsetInCU: 0x147B2, offset: 0x147B2, size: 0x8, addend: 0x0, symName: __Z13AccessWebsiteRNSt3__15queueI6AlumnoNS_5dequeIS1_NS_9allocatorIS1_EEEEEENS0_INS_12basic_stringIcNS_11char_traitsIcEENS3_IcEEEENS2_ISC_NS3_ISC_EEEEEESC_SC_, symObjAddr: 0x6C4, symBinAddr: 0x1000037E0, symSize: 0x24C }
  - { offsetInCU: 0x1483B, offset: 0x1483B, size: 0x8, addend: 0x0, symName: __ZNSt3__15queueINS_12basic_stringIcNS_11char_traitsIcEENS_9allocatorIcEEEENS_5dequeIS6_NS4_IS6_EEEEEC1B8ue170006ERKSA_, symObjAddr: 0x910, symBinAddr: 0x100003A2C, symSize: 0x34 }
  - { offsetInCU: 0x14874, offset: 0x14874, size: 0x8, addend: 0x0, symName: __ZNSt3__15queueINS_12basic_stringIcNS_11char_traitsIcEENS_9allocatorIcEEEENS_5dequeIS6_NS4_IS6_EEEEED1Ev, symObjAddr: 0x950, symBinAddr: 0x100003A6C, symSize: 0x2C }
  - { offsetInCU: 0x148A1, offset: 0x148A1, size: 0x8, addend: 0x0, symName: __ZNSt3__113basic_ostreamIcNS_11char_traitsIcEEElsB8ue170006EPFRS3_S4_E, symObjAddr: 0x97C, symBinAddr: 0x100003A98, symSize: 0x2C }
  - { offsetInCU: 0x148D5, offset: 0x148D5, size: 0x8, addend: 0x0, symName: __ZNSt3__15queueI6AlumnoNS_5dequeIS1_NS_9allocatorIS1_EEEEED1Ev, symObjAddr: 0xA00, symBinAddr: 0x100003B1C, symSize: 0x2C }
  - { offsetInCU: 0x14902, offset: 0x14902, size: 0x8, addend: 0x0, symName: __ZNSt3__15queueINS_12basic_stringIcNS_11char_traitsIcEENS_9allocatorIcEEEENS_5dequeIS6_NS4_IS6_EEEEE4pushB8ue170006ERKS6_, symObjAddr: 0xD40, symBinAddr: 0x100003E5C, symSize: 0x2C }
  - { offsetInCU: 0x1493C, offset: 0x1493C, size: 0x8, addend: 0x0, symName: __ZN6AlumnoC1Ev, symObjAddr: 0xDB8, symBinAddr: 0x100003ED4, symSize: 0x2C }
  - { offsetInCU: 0x14968, offset: 0x14968, size: 0x8, addend: 0x0, symName: __ZNSt3__111char_traitsIcE3eofB8ue170006Ev, symObjAddr: 0xDE4, symBinAddr: 0x100003F00, symSize: 0x8 }
  - { offsetInCU: 0x1497C, offset: 0x1497C, size: 0x8, addend: 0x0, symName: __ZNSt3__15queueI6AlumnoNS_5dequeIS1_NS_9allocatorIS1_EEEEE4pushB8ue170006ERKS1_, symObjAddr: 0xE48, symBinAddr: 0x100003F64, symSize: 0x2C }
  - { offsetInCU: 0x149B1, offset: 0x149B1, size: 0x8, addend: 0x0, symName: __ZN6AlumnoD1Ev, symObjAddr: 0xE74, symBinAddr: 0x100003F90, symSize: 0x2C }
  - { offsetInCU: 0x149DD, offset: 0x149DD, size: 0x8, addend: 0x0, symName: __ZNKSt3__15queueI6AlumnoNS_5dequeIS1_NS_9allocatorIS1_EEEEE5emptyB8ue170006Ev, symObjAddr: 0xEA0, symBinAddr: 0x100003FBC, symSize: 0x28 }
  - { offsetInCU: 0x14A03, offset: 0x14A03, size: 0x8, addend: 0x0, symName: __ZNSt3__15queueI6AlumnoNS_5dequeIS1_NS_9allocatorIS1_EEEEE5frontB8ue170006Ev, symObjAddr: 0xEC8, symBinAddr: 0x100003FE4, symSize: 0x24 }
  - { offsetInCU: 0x14A29, offset: 0x14A29, size: 0x8, addend: 0x0, symName: __ZN6AlumnoC1ERKS_, symObjAddr: 0xEEC, symBinAddr: 0x100004008, symSize: 0x34 }
  - { offsetInCU: 0x14A5D, offset: 0x14A5D, size: 0x8, addend: 0x0, symName: __Z12ShowWebSitesNSt3__15queueINS_12basic_stringIcNS_11char_traitsIcEENS_9allocatorIcEEEENS_5dequeIS6_NS4_IS6_EEEEEE, symObjAddr: 0x1068, symBinAddr: 0x100004184, symSize: 0xE0 }
  - { offsetInCU: 0x14A95, offset: 0x14A95, size: 0x8, addend: 0x0, symName: __ZNSt3__13setINS_12basic_stringIcNS_11char_traitsIcEENS_9allocatorIcEEEENS_4lessIS6_EENS4_IS6_EEE6insertB8ue170006ERKS6_, symObjAddr: 0x1148, symBinAddr: 0x100004264, symSize: 0x4C }
  - { offsetInCU: 0x14ACA, offset: 0x14ACA, size: 0x8, addend: 0x0, symName: __ZNSt3__15queueI6AlumnoNS_5dequeIS1_NS_9allocatorIS1_EEEEE3popB8ue170006Ev, symObjAddr: 0x1194, symBinAddr: 0x1000042B0, symSize: 0x24 }
  - { offsetInCU: 0x14AF0, offset: 0x14AF0, size: 0x8, addend: 0x0, symName: __ZNSt3__15queueI6AlumnoNS_5dequeIS1_NS_9allocatorIS1_EEEEEaSB8ue170006ERKS6_, symObjAddr: 0x11B8, symBinAddr: 0x1000042D4, symSize: 0x34 }
  - { offsetInCU: 0x14B25, offset: 0x14B25, size: 0x8, addend: 0x0, symName: __ZNKSt3__15queueINS_12basic_stringIcNS_11char_traitsIcEENS_9allocatorIcEEEENS_5dequeIS6_NS4_IS6_EEEEE5emptyB8ue170006Ev, symObjAddr: 0x11EC, symBinAddr: 0x100004308, symSize: 0x28 }
  - { offsetInCU: 0x14B4B, offset: 0x14B4B, size: 0x8, addend: 0x0, symName: __ZNSt3__15queueINS_12basic_stringIcNS_11char_traitsIcEENS_9allocatorIcEEEENS_5dequeIS6_NS4_IS6_EEEEE5frontB8ue170006Ev, symObjAddr: 0x1214, symBinAddr: 0x100004330, symSize: 0x24 }
  - { offsetInCU: 0x14B71, offset: 0x14B71, size: 0x8, addend: 0x0, symName: __ZNSt3__15queueINS_12basic_stringIcNS_11char_traitsIcEENS_9allocatorIcEEEENS_5dequeIS6_NS4_IS6_EEEEE3popB8ue170006Ev, symObjAddr: 0x1238, symBinAddr: 0x100004354, symSize: 0x24 }
  - { offsetInCU: 0x14B97, offset: 0x14B97, size: 0x8, addend: 0x0, symName: __ZNSt3__15queueINS_12basic_stringIcNS_11char_traitsIcEENS_9allocatorIcEEEENS_5dequeIS6_NS4_IS6_EEEEED2Ev, symObjAddr: 0x125C, symBinAddr: 0x100004378, symSize: 0x2C }
  - { offsetInCU: 0x14BC4, offset: 0x14BC4, size: 0x8, addend: 0x0, symName: __ZNSt3__15dequeINS_12basic_stringIcNS_11char_traitsIcEENS_9allocatorIcEEEENS4_IS6_EEED1B8ue170006Ev, symObjAddr: 0x1288, symBinAddr: 0x1000043A4, symSize: 0x2C }
  - { offsetInCU: 0x14BEE, offset: 0x14BEE, size: 0x8, addend: 0x0, symName: __ZNSt3__15dequeINS_12basic_stringIcNS_11char_traitsIcEENS_9allocatorIcEEEENS4_IS6_EEED2B8ue170006Ev, symObjAddr: 0x12B4, symBinAddr: 0x1000043D0, symSize: 0xA4 }
  - { offsetInCU: 0x14C44, offset: 0x14C44, size: 0x8, addend: 0x0, symName: __ZNSt3__15dequeINS_12basic_stringIcNS_11char_traitsIcEENS_9allocatorIcEEEENS4_IS6_EEE5clearEv, symObjAddr: 0x1358, symBinAddr: 0x100004474, symSize: 0x1A8 }
  - { offsetInCU: 0x14CA7, offset: 0x14CA7, size: 0x8, addend: 0x0, symName: __ZNKSt3__15dequeINS_12basic_stringIcNS_11char_traitsIcEENS_9allocatorIcEEEENS4_IS6_EEE17__annotate_deleteB8ue170006Ev, symObjAddr: 0x1500, symBinAddr: 0x10000461C, symSize: 0xEC }
  - { offsetInCU: 0x14CEA, offset: 0x14CEA, size: 0x8, addend: 0x0, symName: __ZNSt3__114__split_bufferIPNS_12basic_stringIcNS_11char_traitsIcEENS_9allocatorIcEEEENS4_IS7_EEE5beginB8ue170006Ev, symObjAddr: 0x15EC, symBinAddr: 0x100004708, symSize: 0x18 }
  - { offsetInCU: 0x14D10, offset: 0x14D10, size: 0x8, addend: 0x0, symName: __ZNSt3__114__split_bufferIPNS_12basic_stringIcNS_11char_traitsIcEENS_9allocatorIcEEEENS4_IS7_EEE3endB8ue170006Ev, symObjAddr: 0x1604, symBinAddr: 0x100004720, symSize: 0x18 }
  - { offsetInCU: 0x14D36, offset: 0x14D36, size: 0x8, addend: 0x0, symName: __ZNSt3__116allocator_traitsINS_9allocatorINS_12basic_stringIcNS_11char_traitsIcEENS1_IcEEEEEEE10deallocateB8ue170006ERS7_PS6_m, symObjAddr: 0x161C, symBinAddr: 0x100004738, symSize: 0x34 }
  - { offsetInCU: 0x14D78, offset: 0x14D78, size: 0x8, addend: 0x0, symName: __ZNSt3__15dequeINS_12basic_stringIcNS_11char_traitsIcEENS_9allocatorIcEEEENS4_IS6_EEE7__allocB8ue170006Ev, symObjAddr: 0x1650, symBinAddr: 0x10000476C, symSize: 0x28 }
  - { offsetInCU: 0x14D9E, offset: 0x14D9E, size: 0x8, addend: 0x0, symName: __ZNSt3__114__split_bufferIPNS_12basic_stringIcNS_11char_traitsIcEENS_9allocatorIcEEEENS4_IS7_EEED1Ev, symObjAddr: 0x1678, symBinAddr: 0x100004794, symSize: 0x2C }
  - { offsetInCU: 0x14DCA, offset: 0x14DCA, size: 0x8, addend: 0x0, symName: __ZNSt3__15dequeINS_12basic_stringIcNS_11char_traitsIcEENS_9allocatorIcEEEENS4_IS6_EEE5beginB8ue170006Ev, symObjAddr: 0x16A4, symBinAddr: 0x1000047C0, symSize: 0xD4 }
  - { offsetInCU: 0x14DFF, offset: 0x14DFF, size: 0x8, addend: 0x0, symName: __ZNSt3__15dequeINS_12basic_stringIcNS_11char_traitsIcEENS_9allocatorIcEEEENS4_IS6_EEE3endB8ue170006Ev, symObjAddr: 0x1778, symBinAddr: 0x100004894, symSize: 0xC4 }
  - { offsetInCU: 0x14E43, offset: 0x14E43, size: 0x8, addend: 0x0, symName: __ZNSt3__116allocator_traitsINS_9allocatorINS_12basic_stringIcNS_11char_traitsIcEENS1_IcEEEEEEE7destroyB8ue170006IS6_vEEvRS7_PT_, symObjAddr: 0x1870, symBinAddr: 0x10000498C, symSize: 0x2C }
  - { offsetInCU: 0x14E80, offset: 0x14E80, size: 0x8, addend: 0x0, symName: __ZNKSt3__116__deque_iteratorINS_12basic_stringIcNS_11char_traitsIcEENS_9allocatorIcEEEEPS6_RS6_PS7_lLl170EEdeB8ue170006Ev, symObjAddr: 0x189C, symBinAddr: 0x1000049B8, symSize: 0x18 }
  - { offsetInCU: 0x14EA6, offset: 0x14EA6, size: 0x8, addend: 0x0, symName: __ZNSt3__116__deque_iteratorINS_12basic_stringIcNS_11char_traitsIcEENS_9allocatorIcEEEEPS6_RS6_PS7_lLl170EEppB8ue170006Ev, symObjAddr: 0x18B4, symBinAddr: 0x1000049D0, symSize: 0x70 }
  - { offsetInCU: 0x14ECC, offset: 0x14ECC, size: 0x8, addend: 0x0, symName: __ZNSt3__15dequeINS_12basic_stringIcNS_11char_traitsIcEENS_9allocatorIcEEEENS4_IS6_EEE6__sizeB8ue170006Ev, symObjAddr: 0x1924, symBinAddr: 0x100004A40, symSize: 0x28 }
  - { offsetInCU: 0x14EF2, offset: 0x14EF2, size: 0x8, addend: 0x0, symName: __ZNKSt3__114__split_bufferIPNS_12basic_stringIcNS_11char_traitsIcEENS_9allocatorIcEEEENS4_IS7_EEE4sizeB8ue170006Ev, symObjAddr: 0x194C, symBinAddr: 0x100004A68, symSize: 0x28 }
  - { offsetInCU: 0x14F18, offset: 0x14F18, size: 0x8, addend: 0x0, symName: __ZNSt3__114__split_bufferIPNS_12basic_stringIcNS_11char_traitsIcEENS_9allocatorIcEEEENS4_IS7_EEE5frontB8ue170006Ev, symObjAddr: 0x1974, symBinAddr: 0x100004A90, symSize: 0x18 }
  - { offsetInCU: 0x14F3E, offset: 0x14F3E, size: 0x8, addend: 0x0, symName: __ZNSt3__114__split_bufferIPNS_12basic_stringIcNS_11char_traitsIcEENS_9allocatorIcEEEENS4_IS7_EEE9pop_frontB8ue170006Ev, symObjAddr: 0x198C, symBinAddr: 0x100004AA8, symSize: 0x2C }
  - { offsetInCU: 0x14F64, offset: 0x14F64, size: 0x8, addend: 0x0, symName: __ZNKSt3__15dequeINS_12basic_stringIcNS_11char_traitsIcEENS_9allocatorIcEEEENS4_IS6_EEE14__annotate_newB8ue170006Em, symObjAddr: 0x19B8, symBinAddr: 0x100004AD4, symSize: 0xC0 }
  - { offsetInCU: 0x14F99, offset: 0x14F99, size: 0x8, addend: 0x0, symName: __ZNKSt3__114__split_bufferIPNS_12basic_stringIcNS_11char_traitsIcEENS_9allocatorIcEEEENS4_IS7_EEE5emptyB8ue170006Ev, symObjAddr: 0x1A78, symBinAddr: 0x100004B94, symSize: 0x28 }
  - { offsetInCU: 0x14FBF, offset: 0x14FBF, size: 0x8, addend: 0x0, symName: __ZNSt3__116__deque_iteratorINS_12basic_stringIcNS_11char_traitsIcEENS_9allocatorIcEEEEPS6_RS6_PS7_lLl170EEC1B8ue170006ES9_S7_, symObjAddr: 0x1AA0, symBinAddr: 0x100004BBC, symSize: 0x3C }
  - { offsetInCU: 0x15007, offset: 0x15007, size: 0x8, addend: 0x0, symName: __ZNSt3__116__deque_iteratorINS_12basic_stringIcNS_11char_traitsIcEENS_9allocatorIcEEEEPS6_RS6_PS7_lLl170EEC2B8ue170006ES9_S7_, symObjAddr: 0x1ADC, symBinAddr: 0x100004BF8, symSize: 0x2C }
  - { offsetInCU: 0x1504F, offset: 0x1504F, size: 0x8, addend: 0x0, symName: __ZNKSt3__15dequeINS_12basic_stringIcNS_11char_traitsIcEENS_9allocatorIcEEEENS4_IS6_EEE4sizeB8ue170006Ev, symObjAddr: 0x1B08, symBinAddr: 0x100004C24, symSize: 0x28 }
  - { offsetInCU: 0x15075, offset: 0x15075, size: 0x8, addend: 0x0, symName: __ZNKSt3__15dequeINS_12basic_stringIcNS_11char_traitsIcEENS_9allocatorIcEEEENS4_IS6_EEE6__sizeB8ue170006Ev, symObjAddr: 0x1B30, symBinAddr: 0x100004C4C, symSize: 0x28 }
  - { offsetInCU: 0x1509B, offset: 0x1509B, size: 0x8, addend: 0x0, symName: __ZNKSt3__117__compressed_pairImNS_9allocatorINS_12basic_stringIcNS_11char_traitsIcEENS1_IcEEEEEEE5firstB8ue170006Ev, symObjAddr: 0x1B58, symBinAddr: 0x100004C74, symSize: 0x24 }
  - { offsetInCU: 0x150C1, offset: 0x150C1, size: 0x8, addend: 0x0, symName: __ZNKSt3__122__compressed_pair_elemImLi0ELb0EE5__getB8ue170006Ev, symObjAddr: 0x1B7C, symBinAddr: 0x100004C98, symSize: 0x14 }
  - { offsetInCU: 0x150E7, offset: 0x150E7, size: 0x8, addend: 0x0, symName: __ZNSt3__19allocatorINS_12basic_stringIcNS_11char_traitsIcEENS0_IcEEEEE7destroyB8ue170006EPS5_, symObjAddr: 0x1BC0, symBinAddr: 0x100004CDC, symSize: 0x28 }
  - { offsetInCU: 0x1511B, offset: 0x1511B, size: 0x8, addend: 0x0, symName: __ZNSt3__117__compressed_pairImNS_9allocatorINS_12basic_stringIcNS_11char_traitsIcEENS1_IcEEEEEEE5firstB8ue170006Ev, symObjAddr: 0x1BE8, symBinAddr: 0x100004D04, symSize: 0x24 }
  - { offsetInCU: 0x15141, offset: 0x15141, size: 0x8, addend: 0x0, symName: __ZNSt3__122__compressed_pair_elemImLi0ELb0EE5__getB8ue170006Ev, symObjAddr: 0x1C0C, symBinAddr: 0x100004D28, symSize: 0x14 }
  - { offsetInCU: 0x15167, offset: 0x15167, size: 0x8, addend: 0x0, symName: __ZNSt3__114__split_bufferIPNS_12basic_stringIcNS_11char_traitsIcEENS_9allocatorIcEEEENS4_IS7_EEE19__destruct_at_beginB8ue170006EPS7_, symObjAddr: 0x1C20, symBinAddr: 0x100004D3C, symSize: 0x2C }
  - { offsetInCU: 0x1519B, offset: 0x1519B, size: 0x8, addend: 0x0, symName: __ZNSt3__114__split_bufferIPNS_12basic_stringIcNS_11char_traitsIcEENS_9allocatorIcEEEENS4_IS7_EEE19__destruct_at_beginEPS7_NS_17integral_constantIbLb1EEE, symObjAddr: 0x1C4C, symBinAddr: 0x100004D68, symSize: 0x20 }
  - { offsetInCU: 0x151DB, offset: 0x151DB, size: 0x8, addend: 0x0, symName: __ZNKSt3__15dequeINS_12basic_stringIcNS_11char_traitsIcEENS_9allocatorIcEEEENS4_IS6_EEE18__annotate_from_toB8ue170006EmmNS8_22__asan_annotation_typeENS8_23__asan_annotation_placeE, symObjAddr: 0x1C6C, symBinAddr: 0x100004D88, symSize: 0x598 }
  - { offsetInCU: 0x15397, offset: 0x15397, size: 0x8, addend: 0x0, symName: __ZNKSt3__114__split_bufferIPNS_12basic_stringIcNS_11char_traitsIcEENS_9allocatorIcEEEENS4_IS7_EEE5beginB8ue170006Ev, symObjAddr: 0x2204, symBinAddr: 0x100005320, symSize: 0x18 }
  - { offsetInCU: 0x153BD, offset: 0x153BD, size: 0x8, addend: 0x0, symName: __ZNKSt3__15dequeINS_12basic_stringIcNS_11char_traitsIcEENS_9allocatorIcEEEENS4_IS6_EEE5emptyB8ue170006Ev, symObjAddr: 0x221C, symBinAddr: 0x100005338, symSize: 0x30 }
  - { offsetInCU: 0x153E3, offset: 0x153E3, size: 0x8, addend: 0x0, symName: __ZNKSt3__15dequeINS_12basic_stringIcNS_11char_traitsIcEENS_9allocatorIcEEEENS4_IS6_EEE44__annotate_double_ended_contiguous_containerB8ue170006EPKvSA_SA_SA_SA_SA_, symObjAddr: 0x2260, symBinAddr: 0x10000537C, symSize: 0x28 }
  - { offsetInCU: 0x15451, offset: 0x15451, size: 0x8, addend: 0x0, symName: __ZNKSt3__15dequeINS_12basic_stringIcNS_11char_traitsIcEENS_9allocatorIcEEEENS4_IS6_EEE22__annotate_whole_blockB8ue170006EmNS8_22__asan_annotation_typeE, symObjAddr: 0x2288, symBinAddr: 0x1000053A4, symSize: 0xAC }
  - { offsetInCU: 0x154C2, offset: 0x154C2, size: 0x8, addend: 0x0, symName: __ZNKSt3__15dequeINS_12basic_stringIcNS_11char_traitsIcEENS_9allocatorIcEEEENS4_IS6_EEE23__annotate_poison_blockB8ue170006EPKvSA_, symObjAddr: 0x2334, symBinAddr: 0x100005450, symSize: 0x44 }
  - { offsetInCU: 0x15506, offset: 0x15506, size: 0x8, addend: 0x0, symName: __ZNSt3__19allocatorINS_12basic_stringIcNS_11char_traitsIcEENS0_IcEEEEE10deallocateB8ue170006EPS5_m, symObjAddr: 0x2378, symBinAddr: 0x100005494, symSize: 0x74 }
  - { offsetInCU: 0x15548, offset: 0x15548, size: 0x8, addend: 0x0, symName: __ZNSt3__117__compressed_pairImNS_9allocatorINS_12basic_stringIcNS_11char_traitsIcEENS1_IcEEEEEEE6secondB8ue170006Ev, symObjAddr: 0x2474, symBinAddr: 0x100005590, symSize: 0x24 }
  - { offsetInCU: 0x1556E, offset: 0x1556E, size: 0x8, addend: 0x0, symName: __ZNSt3__122__compressed_pair_elemINS_9allocatorINS_12basic_stringIcNS_11char_traitsIcEENS1_IcEEEEEELi1ELb1EE5__getB8ue170006Ev, symObjAddr: 0x2498, symBinAddr: 0x1000055B4, symSize: 0x14 }
  - { offsetInCU: 0x15594, offset: 0x15594, size: 0x8, addend: 0x0, symName: __ZNSt3__114__split_bufferIPNS_12basic_stringIcNS_11char_traitsIcEENS_9allocatorIcEEEENS4_IS7_EEED2Ev, symObjAddr: 0x24AC, symBinAddr: 0x1000055C8, symSize: 0x80 }
  - { offsetInCU: 0x155C0, offset: 0x155C0, size: 0x8, addend: 0x0, symName: __ZNSt3__114__split_bufferIPNS_12basic_stringIcNS_11char_traitsIcEENS_9allocatorIcEEEENS4_IS7_EEE5clearB8ue170006Ev, symObjAddr: 0x252C, symBinAddr: 0x100005648, symSize: 0x28 }
  - { offsetInCU: 0x155E6, offset: 0x155E6, size: 0x8, addend: 0x0, symName: __ZNSt3__116allocator_traitsINS_9allocatorIPNS_12basic_stringIcNS_11char_traitsIcEENS1_IcEEEEEEE10deallocateB8ue170006ERS8_PS7_m, symObjAddr: 0x2554, symBinAddr: 0x100005670, symSize: 0x34 }
  - { offsetInCU: 0x15628, offset: 0x15628, size: 0x8, addend: 0x0, symName: __ZNSt3__114__split_bufferIPNS_12basic_stringIcNS_11char_traitsIcEENS_9allocatorIcEEEENS4_IS7_EEE7__allocB8ue170006Ev, symObjAddr: 0x2588, symBinAddr: 0x1000056A4, symSize: 0x28 }
  - { offsetInCU: 0x1564E, offset: 0x1564E, size: 0x8, addend: 0x0, symName: __ZNKSt3__114__split_bufferIPNS_12basic_stringIcNS_11char_traitsIcEENS_9allocatorIcEEEENS4_IS7_EEE8capacityB8ue170006Ev, symObjAddr: 0x25B0, symBinAddr: 0x1000056CC, symSize: 0x40 }
  - { offsetInCU: 0x15674, offset: 0x15674, size: 0x8, addend: 0x0, symName: __ZNSt3__114__split_bufferIPNS_12basic_stringIcNS_11char_traitsIcEENS_9allocatorIcEEEENS4_IS7_EEE17__destruct_at_endB8ue170006EPS7_, symObjAddr: 0x25F0, symBinAddr: 0x10000570C, symSize: 0x2C }
  - { offsetInCU: 0x156A8, offset: 0x156A8, size: 0x8, addend: 0x0, symName: __ZNSt3__114__split_bufferIPNS_12basic_stringIcNS_11char_traitsIcEENS_9allocatorIcEEEENS4_IS7_EEE17__destruct_at_endB8ue170006EPS7_NS_17integral_constantIbLb0EEE, symObjAddr: 0x261C, symBinAddr: 0x100005738, symSize: 0x94 }
  - { offsetInCU: 0x156E8, offset: 0x156E8, size: 0x8, addend: 0x0, symName: __ZNSt3__116allocator_traitsINS_9allocatorIPNS_12basic_stringIcNS_11char_traitsIcEENS1_IcEEEEEEE7destroyB8ue170006IS7_vEEvRS8_PT_, symObjAddr: 0x26B0, symBinAddr: 0x1000057CC, symSize: 0x2C }
  - { offsetInCU: 0x15725, offset: 0x15725, size: 0x8, addend: 0x0, symName: __ZNSt3__19allocatorIPNS_12basic_stringIcNS_11char_traitsIcEENS0_IcEEEEE7destroyB8ue170006EPS6_, symObjAddr: 0x26F0, symBinAddr: 0x10000580C, symSize: 0x14 }
  - { offsetInCU: 0x15759, offset: 0x15759, size: 0x8, addend: 0x0, symName: __ZNSt3__19allocatorIPNS_12basic_stringIcNS_11char_traitsIcEENS0_IcEEEEE10deallocateB8ue170006EPS6_m, symObjAddr: 0x2704, symBinAddr: 0x100005820, symSize: 0x70 }
  - { offsetInCU: 0x1579B, offset: 0x1579B, size: 0x8, addend: 0x0, symName: __ZNSt3__117__compressed_pairIPPNS_12basic_stringIcNS_11char_traitsIcEENS_9allocatorIcEEEENS4_IS7_EEE6secondB8ue170006Ev, symObjAddr: 0x2774, symBinAddr: 0x100005890, symSize: 0x24 }
  - { offsetInCU: 0x157C1, offset: 0x157C1, size: 0x8, addend: 0x0, symName: __ZNSt3__122__compressed_pair_elemINS_9allocatorIPNS_12basic_stringIcNS_11char_traitsIcEENS1_IcEEEEEELi1ELb1EE5__getB8ue170006Ev, symObjAddr: 0x2798, symBinAddr: 0x1000058B4, symSize: 0x14 }
  - { offsetInCU: 0x157E7, offset: 0x157E7, size: 0x8, addend: 0x0, symName: __ZNKSt3__114__split_bufferIPNS_12basic_stringIcNS_11char_traitsIcEENS_9allocatorIcEEEENS4_IS7_EEE9__end_capB8ue170006Ev, symObjAddr: 0x27AC, symBinAddr: 0x1000058C8, symSize: 0x28 }
  - { offsetInCU: 0x1580D, offset: 0x1580D, size: 0x8, addend: 0x0, symName: __ZNKSt3__117__compressed_pairIPPNS_12basic_stringIcNS_11char_traitsIcEENS_9allocatorIcEEEENS4_IS7_EEE5firstB8ue170006Ev, symObjAddr: 0x27D4, symBinAddr: 0x1000058F0, symSize: 0x24 }
  - { offsetInCU: 0x15833, offset: 0x15833, size: 0x8, addend: 0x0, symName: __ZNKSt3__122__compressed_pair_elemIPPNS_12basic_stringIcNS_11char_traitsIcEENS_9allocatorIcEEEELi0ELb0EE5__getB8ue170006Ev, symObjAddr: 0x27F8, symBinAddr: 0x100005914, symSize: 0x14 }
  - { offsetInCU: 0x15859, offset: 0x15859, size: 0x8, addend: 0x0, symName: __ZNSt3__15queueI6AlumnoNS_5dequeIS1_NS_9allocatorIS1_EEEEED2Ev, symObjAddr: 0x280C, symBinAddr: 0x100005928, symSize: 0x2C }
  - { offsetInCU: 0x15886, offset: 0x15886, size: 0x8, addend: 0x0, symName: __ZNSt3__15dequeI6AlumnoNS_9allocatorIS1_EEED1B8ue170006Ev, symObjAddr: 0x2838, symBinAddr: 0x100005954, symSize: 0x2C }
  - { offsetInCU: 0x158B0, offset: 0x158B0, size: 0x8, addend: 0x0, symName: __ZNSt3__15dequeI6AlumnoNS_9allocatorIS1_EEED2B8ue170006Ev, symObjAddr: 0x2864, symBinAddr: 0x100005980, symSize: 0xA4 }
  - { offsetInCU: 0x15906, offset: 0x15906, size: 0x8, addend: 0x0, symName: __ZNSt3__15dequeI6AlumnoNS_9allocatorIS1_EEE5clearEv, symObjAddr: 0x2908, symBinAddr: 0x100005A24, symSize: 0x1A8 }
  - { offsetInCU: 0x15969, offset: 0x15969, size: 0x8, addend: 0x0, symName: __ZNKSt3__15dequeI6AlumnoNS_9allocatorIS1_EEE17__annotate_deleteB8ue170006Ev, symObjAddr: 0x2AB0, symBinAddr: 0x100005BCC, symSize: 0xEC }
  - { offsetInCU: 0x159AC, offset: 0x159AC, size: 0x8, addend: 0x0, symName: __ZNSt3__114__split_bufferIP6AlumnoNS_9allocatorIS2_EEE5beginB8ue170006Ev, symObjAddr: 0x2B9C, symBinAddr: 0x100005CB8, symSize: 0x18 }
  - { offsetInCU: 0x159D2, offset: 0x159D2, size: 0x8, addend: 0x0, symName: __ZNSt3__114__split_bufferIP6AlumnoNS_9allocatorIS2_EEE3endB8ue170006Ev, symObjAddr: 0x2BB4, symBinAddr: 0x100005CD0, symSize: 0x18 }
  - { offsetInCU: 0x159F8, offset: 0x159F8, size: 0x8, addend: 0x0, symName: __ZNSt3__116allocator_traitsINS_9allocatorI6AlumnoEEE10deallocateB8ue170006ERS3_PS2_m, symObjAddr: 0x2BCC, symBinAddr: 0x100005CE8, symSize: 0x34 }
  - { offsetInCU: 0x15A3A, offset: 0x15A3A, size: 0x8, addend: 0x0, symName: __ZNSt3__15dequeI6AlumnoNS_9allocatorIS1_EEE7__allocB8ue170006Ev, symObjAddr: 0x2C00, symBinAddr: 0x100005D1C, symSize: 0x28 }
  - { offsetInCU: 0x15A60, offset: 0x15A60, size: 0x8, addend: 0x0, symName: __ZNSt3__114__split_bufferIP6AlumnoNS_9allocatorIS2_EEED1Ev, symObjAddr: 0x2C28, symBinAddr: 0x100005D44, symSize: 0x2C }
  - { offsetInCU: 0x15A8C, offset: 0x15A8C, size: 0x8, addend: 0x0, symName: __ZNSt3__15dequeI6AlumnoNS_9allocatorIS1_EEE5beginB8ue170006Ev, symObjAddr: 0x2C54, symBinAddr: 0x100005D70, symSize: 0xD4 }
  - { offsetInCU: 0x15AC1, offset: 0x15AC1, size: 0x8, addend: 0x0, symName: __ZNSt3__15dequeI6AlumnoNS_9allocatorIS1_EEE3endB8ue170006Ev, symObjAddr: 0x2D28, symBinAddr: 0x100005E44, symSize: 0xC4 }
  - { offsetInCU: 0x15B05, offset: 0x15B05, size: 0x8, addend: 0x0, symName: __ZNSt3__116allocator_traitsINS_9allocatorI6AlumnoEEE7destroyB8ue170006IS2_vEEvRS3_PT_, symObjAddr: 0x2E20, symBinAddr: 0x100005F3C, symSize: 0x2C }
  - { offsetInCU: 0x15B42, offset: 0x15B42, size: 0x8, addend: 0x0, symName: __ZNKSt3__116__deque_iteratorI6AlumnoPS1_RS1_PS2_lLl28EEdeB8ue170006Ev, symObjAddr: 0x2E4C, symBinAddr: 0x100005F68, symSize: 0x18 }
  - { offsetInCU: 0x15B68, offset: 0x15B68, size: 0x8, addend: 0x0, symName: __ZNSt3__116__deque_iteratorI6AlumnoPS1_RS1_PS2_lLl28EEppB8ue170006Ev, symObjAddr: 0x2E64, symBinAddr: 0x100005F80, symSize: 0x70 }
  - { offsetInCU: 0x15B8E, offset: 0x15B8E, size: 0x8, addend: 0x0, symName: __ZNSt3__15dequeI6AlumnoNS_9allocatorIS1_EEE6__sizeB8ue170006Ev, symObjAddr: 0x2ED4, symBinAddr: 0x100005FF0, symSize: 0x28 }
  - { offsetInCU: 0x15BB4, offset: 0x15BB4, size: 0x8, addend: 0x0, symName: __ZNKSt3__114__split_bufferIP6AlumnoNS_9allocatorIS2_EEE4sizeB8ue170006Ev, symObjAddr: 0x2EFC, symBinAddr: 0x100006018, symSize: 0x28 }
  - { offsetInCU: 0x15BDA, offset: 0x15BDA, size: 0x8, addend: 0x0, symName: __ZNSt3__114__split_bufferIP6AlumnoNS_9allocatorIS2_EEE5frontB8ue170006Ev, symObjAddr: 0x2F24, symBinAddr: 0x100006040, symSize: 0x18 }
  - { offsetInCU: 0x15C00, offset: 0x15C00, size: 0x8, addend: 0x0, symName: __ZNSt3__114__split_bufferIP6AlumnoNS_9allocatorIS2_EEE9pop_frontB8ue170006Ev, symObjAddr: 0x2F3C, symBinAddr: 0x100006058, symSize: 0x2C }
  - { offsetInCU: 0x15C26, offset: 0x15C26, size: 0x8, addend: 0x0, symName: __ZNKSt3__15dequeI6AlumnoNS_9allocatorIS1_EEE14__annotate_newB8ue170006Em, symObjAddr: 0x2F68, symBinAddr: 0x100006084, symSize: 0xC0 }
  - { offsetInCU: 0x15C5B, offset: 0x15C5B, size: 0x8, addend: 0x0, symName: __ZNKSt3__114__split_bufferIP6AlumnoNS_9allocatorIS2_EEE5emptyB8ue170006Ev, symObjAddr: 0x3028, symBinAddr: 0x100006144, symSize: 0x28 }
  - { offsetInCU: 0x15C81, offset: 0x15C81, size: 0x8, addend: 0x0, symName: __ZNSt3__116__deque_iteratorI6AlumnoPS1_RS1_PS2_lLl28EEC1B8ue170006ES4_S2_, symObjAddr: 0x3050, symBinAddr: 0x10000616C, symSize: 0x3C }
  - { offsetInCU: 0x15CC9, offset: 0x15CC9, size: 0x8, addend: 0x0, symName: __ZNSt3__116__deque_iteratorI6AlumnoPS1_RS1_PS2_lLl28EEC2B8ue170006ES4_S2_, symObjAddr: 0x308C, symBinAddr: 0x1000061A8, symSize: 0x2C }
  - { offsetInCU: 0x15D11, offset: 0x15D11, size: 0x8, addend: 0x0, symName: __ZNKSt3__15dequeI6AlumnoNS_9allocatorIS1_EEE4sizeB8ue170006Ev, symObjAddr: 0x30B8, symBinAddr: 0x1000061D4, symSize: 0x28 }
  - { offsetInCU: 0x15D37, offset: 0x15D37, size: 0x8, addend: 0x0, symName: __ZNKSt3__15dequeI6AlumnoNS_9allocatorIS1_EEE6__sizeB8ue170006Ev, symObjAddr: 0x30E0, symBinAddr: 0x1000061FC, symSize: 0x28 }
  - { offsetInCU: 0x15D5D, offset: 0x15D5D, size: 0x8, addend: 0x0, symName: __ZNKSt3__117__compressed_pairImNS_9allocatorI6AlumnoEEE5firstB8ue170006Ev, symObjAddr: 0x3108, symBinAddr: 0x100006224, symSize: 0x24 }
  - { offsetInCU: 0x15D83, offset: 0x15D83, size: 0x8, addend: 0x0, symName: __ZNSt3__19allocatorI6AlumnoE7destroyB8ue170006EPS1_, symObjAddr: 0x315C, symBinAddr: 0x100006278, symSize: 0x28 }
  - { offsetInCU: 0x15DB7, offset: 0x15DB7, size: 0x8, addend: 0x0, symName: __ZNSt3__117__compressed_pairImNS_9allocatorI6AlumnoEEE5firstB8ue170006Ev, symObjAddr: 0x3184, symBinAddr: 0x1000062A0, symSize: 0x24 }
  - { offsetInCU: 0x15DDD, offset: 0x15DDD, size: 0x8, addend: 0x0, symName: __ZNSt3__114__split_bufferIP6AlumnoNS_9allocatorIS2_EEE19__destruct_at_beginB8ue170006EPS2_, symObjAddr: 0x31A8, symBinAddr: 0x1000062C4, symSize: 0x2C }
  - { offsetInCU: 0x15E11, offset: 0x15E11, size: 0x8, addend: 0x0, symName: __ZNSt3__114__split_bufferIP6AlumnoNS_9allocatorIS2_EEE19__destruct_at_beginEPS2_NS_17integral_constantIbLb1EEE, symObjAddr: 0x31D4, symBinAddr: 0x1000062F0, symSize: 0x20 }
  - { offsetInCU: 0x15E51, offset: 0x15E51, size: 0x8, addend: 0x0, symName: __ZNKSt3__15dequeI6AlumnoNS_9allocatorIS1_EEE18__annotate_from_toB8ue170006EmmNS4_22__asan_annotation_typeENS4_23__asan_annotation_placeE, symObjAddr: 0x31F4, symBinAddr: 0x100006310, symSize: 0x598 }
  - { offsetInCU: 0x1600D, offset: 0x1600D, size: 0x8, addend: 0x0, symName: __ZNKSt3__114__split_bufferIP6AlumnoNS_9allocatorIS2_EEE5beginB8ue170006Ev, symObjAddr: 0x378C, symBinAddr: 0x1000068A8, symSize: 0x18 }
  - { offsetInCU: 0x16033, offset: 0x16033, size: 0x8, addend: 0x0, symName: __ZNKSt3__15dequeI6AlumnoNS_9allocatorIS1_EEE5emptyB8ue170006Ev, symObjAddr: 0x37A4, symBinAddr: 0x1000068C0, symSize: 0x30 }
  - { offsetInCU: 0x16059, offset: 0x16059, size: 0x8, addend: 0x0, symName: __ZNKSt3__15dequeI6AlumnoNS_9allocatorIS1_EEE44__annotate_double_ended_contiguous_containerB8ue170006EPKvS6_S6_S6_S6_S6_, symObjAddr: 0x37E8, symBinAddr: 0x100006904, symSize: 0x28 }
  - { offsetInCU: 0x160C7, offset: 0x160C7, size: 0x8, addend: 0x0, symName: __ZNKSt3__15dequeI6AlumnoNS_9allocatorIS1_EEE22__annotate_whole_blockB8ue170006EmNS4_22__asan_annotation_typeE, symObjAddr: 0x3810, symBinAddr: 0x10000692C, symSize: 0xAC }
  - { offsetInCU: 0x16138, offset: 0x16138, size: 0x8, addend: 0x0, symName: __ZNKSt3__15dequeI6AlumnoNS_9allocatorIS1_EEE23__annotate_poison_blockB8ue170006EPKvS6_, symObjAddr: 0x38BC, symBinAddr: 0x1000069D8, symSize: 0x44 }
  - { offsetInCU: 0x1617C, offset: 0x1617C, size: 0x8, addend: 0x0, symName: __ZNSt3__19allocatorI6AlumnoE10deallocateB8ue170006EPS1_m, symObjAddr: 0x3900, symBinAddr: 0x100006A1C, symSize: 0x74 }
  - { offsetInCU: 0x161BE, offset: 0x161BE, size: 0x8, addend: 0x0, symName: __ZNSt3__117__compressed_pairImNS_9allocatorI6AlumnoEEE6secondB8ue170006Ev, symObjAddr: 0x3974, symBinAddr: 0x100006A90, symSize: 0x24 }
  - { offsetInCU: 0x161E4, offset: 0x161E4, size: 0x8, addend: 0x0, symName: __ZNSt3__122__compressed_pair_elemINS_9allocatorI6AlumnoEELi1ELb1EE5__getB8ue170006Ev, symObjAddr: 0x3998, symBinAddr: 0x100006AB4, symSize: 0x14 }
  - { offsetInCU: 0x1620A, offset: 0x1620A, size: 0x8, addend: 0x0, symName: __ZNSt3__114__split_bufferIP6AlumnoNS_9allocatorIS2_EEED2Ev, symObjAddr: 0x39AC, symBinAddr: 0x100006AC8, symSize: 0x80 }
  - { offsetInCU: 0x16236, offset: 0x16236, size: 0x8, addend: 0x0, symName: __ZNSt3__114__split_bufferIP6AlumnoNS_9allocatorIS2_EEE5clearB8ue170006Ev, symObjAddr: 0x3A2C, symBinAddr: 0x100006B48, symSize: 0x28 }
  - { offsetInCU: 0x1625C, offset: 0x1625C, size: 0x8, addend: 0x0, symName: __ZNSt3__116allocator_traitsINS_9allocatorIP6AlumnoEEE10deallocateB8ue170006ERS4_PS3_m, symObjAddr: 0x3A54, symBinAddr: 0x100006B70, symSize: 0x34 }
  - { offsetInCU: 0x1629E, offset: 0x1629E, size: 0x8, addend: 0x0, symName: __ZNSt3__114__split_bufferIP6AlumnoNS_9allocatorIS2_EEE7__allocB8ue170006Ev, symObjAddr: 0x3A88, symBinAddr: 0x100006BA4, symSize: 0x28 }
  - { offsetInCU: 0x162C4, offset: 0x162C4, size: 0x8, addend: 0x0, symName: __ZNKSt3__114__split_bufferIP6AlumnoNS_9allocatorIS2_EEE8capacityB8ue170006Ev, symObjAddr: 0x3AB0, symBinAddr: 0x100006BCC, symSize: 0x40 }
  - { offsetInCU: 0x162EA, offset: 0x162EA, size: 0x8, addend: 0x0, symName: __ZNSt3__114__split_bufferIP6AlumnoNS_9allocatorIS2_EEE17__destruct_at_endB8ue170006EPS2_, symObjAddr: 0x3AF0, symBinAddr: 0x100006C0C, symSize: 0x2C }
  - { offsetInCU: 0x1631E, offset: 0x1631E, size: 0x8, addend: 0x0, symName: __ZNSt3__114__split_bufferIP6AlumnoNS_9allocatorIS2_EEE17__destruct_at_endB8ue170006EPS2_NS_17integral_constantIbLb0EEE, symObjAddr: 0x3B1C, symBinAddr: 0x100006C38, symSize: 0x94 }
  - { offsetInCU: 0x1635E, offset: 0x1635E, size: 0x8, addend: 0x0, symName: __ZNSt3__116allocator_traitsINS_9allocatorIP6AlumnoEEE7destroyB8ue170006IS3_vEEvRS4_PT_, symObjAddr: 0x3BB0, symBinAddr: 0x100006CCC, symSize: 0x2C }
  - { offsetInCU: 0x1639B, offset: 0x1639B, size: 0x8, addend: 0x0, symName: __ZNSt3__19allocatorIP6AlumnoE7destroyB8ue170006EPS2_, symObjAddr: 0x3BF0, symBinAddr: 0x100006D0C, symSize: 0x14 }
  - { offsetInCU: 0x163CF, offset: 0x163CF, size: 0x8, addend: 0x0, symName: __ZNSt3__19allocatorIP6AlumnoE10deallocateB8ue170006EPS2_m, symObjAddr: 0x3C04, symBinAddr: 0x100006D20, symSize: 0x70 }
  - { offsetInCU: 0x16411, offset: 0x16411, size: 0x8, addend: 0x0, symName: __ZNSt3__117__compressed_pairIPP6AlumnoNS_9allocatorIS2_EEE6secondB8ue170006Ev, symObjAddr: 0x3C74, symBinAddr: 0x100006D90, symSize: 0x24 }
  - { offsetInCU: 0x16437, offset: 0x16437, size: 0x8, addend: 0x0, symName: __ZNSt3__122__compressed_pair_elemINS_9allocatorIP6AlumnoEELi1ELb1EE5__getB8ue170006Ev, symObjAddr: 0x3C98, symBinAddr: 0x100006DB4, symSize: 0x14 }
  - { offsetInCU: 0x1645D, offset: 0x1645D, size: 0x8, addend: 0x0, symName: __ZNKSt3__114__split_bufferIP6AlumnoNS_9allocatorIS2_EEE9__end_capB8ue170006Ev, symObjAddr: 0x3CAC, symBinAddr: 0x100006DC8, symSize: 0x28 }
  - { offsetInCU: 0x16483, offset: 0x16483, size: 0x8, addend: 0x0, symName: __ZNKSt3__117__compressed_pairIPP6AlumnoNS_9allocatorIS2_EEE5firstB8ue170006Ev, symObjAddr: 0x3CD4, symBinAddr: 0x100006DF0, symSize: 0x24 }
  - { offsetInCU: 0x164A9, offset: 0x164A9, size: 0x8, addend: 0x0, symName: __ZNKSt3__122__compressed_pair_elemIPP6AlumnoLi0ELb0EE5__getB8ue170006Ev, symObjAddr: 0x3CF8, symBinAddr: 0x100006E14, symSize: 0x14 }
  - { offsetInCU: 0x164CF, offset: 0x164CF, size: 0x8, addend: 0x0, symName: __ZN6AlumnoC2Ev, symObjAddr: 0x3D0C, symBinAddr: 0x100006E28, symSize: 0x138 }
  - { offsetInCU: 0x164FB, offset: 0x164FB, size: 0x8, addend: 0x0, symName: __ZNSt3__13setINS_12basic_stringIcNS_11char_traitsIcEENS_9allocatorIcEEEENS_4lessIS6_EENS4_IS6_EEEC1B8ue170006Ev, symObjAddr: 0x3E44, symBinAddr: 0x100006F60, symSize: 0x2C }
  - { offsetInCU: 0x16525, offset: 0x16525, size: 0x8, addend: 0x0, symName: __ZNSt3__13setINS_12basic_stringIcNS_11char_traitsIcEENS_9allocatorIcEEEENS_4lessIS6_EENS4_IS6_EEEC2B8ue170006Ev, symObjAddr: 0x3E70, symBinAddr: 0x100006F8C, symSize: 0x30 }
  - { offsetInCU: 0x1654F, offset: 0x1654F, size: 0x8, addend: 0x0, symName: __ZNSt3__16__treeINS_12basic_stringIcNS_11char_traitsIcEENS_9allocatorIcEEEENS_4lessIS6_EENS4_IS6_EEEC1ERKS8_, symObjAddr: 0x3EA0, symBinAddr: 0x100006FBC, symSize: 0x34 }
  - { offsetInCU: 0x1658A, offset: 0x1658A, size: 0x8, addend: 0x0, symName: __ZNSt3__16__treeINS_12basic_stringIcNS_11char_traitsIcEENS_9allocatorIcEEEENS_4lessIS6_EENS4_IS6_EEEC2ERKS8_, symObjAddr: 0x3ED4, symBinAddr: 0x100006FF0, symSize: 0x70 }
  - { offsetInCU: 0x165C5, offset: 0x165C5, size: 0x8, addend: 0x0, symName: __ZNSt3__117__compressed_pairINS_15__tree_end_nodeIPNS_16__tree_node_baseIPvEEEENS_9allocatorINS_11__tree_nodeINS_12basic_stringIcNS_11char_traitsIcEENS7_IcEEEES3_EEEEEC1B8ue170006ILb1EvEEv, symObjAddr: 0x3F44, symBinAddr: 0x100007060, symSize: 0x2C }
  - { offsetInCU: 0x165FF, offset: 0x165FF, size: 0x8, addend: 0x0, symName: __ZNSt3__117__compressed_pairImNS_4lessINS_12basic_stringIcNS_11char_traitsIcEENS_9allocatorIcEEEEEEEC1B8ue170006IiRKS8_EEOT_OT0_, symObjAddr: 0x3F70, symBinAddr: 0x10000708C, symSize: 0x3C }
  - { offsetInCU: 0x16657, offset: 0x16657, size: 0x8, addend: 0x0, symName: __ZNSt3__16__treeINS_12basic_stringIcNS_11char_traitsIcEENS_9allocatorIcEEEENS_4lessIS6_EENS4_IS6_EEE10__end_nodeB8ue170006Ev, symObjAddr: 0x3FAC, symBinAddr: 0x1000070C8, symSize: 0x2C }
  - { offsetInCU: 0x1667D, offset: 0x1667D, size: 0x8, addend: 0x0, symName: __ZNSt3__16__treeINS_12basic_stringIcNS_11char_traitsIcEENS_9allocatorIcEEEENS_4lessIS6_EENS4_IS6_EEE12__begin_nodeB8ue170006Ev, symObjAddr: 0x3FD8, symBinAddr: 0x1000070F4, symSize: 0x14 }
  - { offsetInCU: 0x166A3, offset: 0x166A3, size: 0x8, addend: 0x0, symName: __ZNSt3__117__compressed_pairINS_15__tree_end_nodeIPNS_16__tree_node_baseIPvEEEENS_9allocatorINS_11__tree_nodeINS_12basic_stringIcNS_11char_traitsIcEENS7_IcEEEES3_EEEEEC2B8ue170006ILb1EvEEv, symObjAddr: 0x3FEC, symBinAddr: 0x100007108, symSize: 0x34 }
  - { offsetInCU: 0x166D8, offset: 0x166D8, size: 0x8, addend: 0x0, symName: __ZNSt3__122__compressed_pair_elemINS_15__tree_end_nodeIPNS_16__tree_node_baseIPvEEEELi0ELb0EEC2B8ue170006ENS_16__value_init_tagE, symObjAddr: 0x4020, symBinAddr: 0x10000713C, symSize: 0x2C }
  - { offsetInCU: 0x1670C, offset: 0x1670C, size: 0x8, addend: 0x0, symName: __ZNSt3__122__compressed_pair_elemINS_9allocatorINS_11__tree_nodeINS_12basic_stringIcNS_11char_traitsIcEENS1_IcEEEEPvEEEELi1ELb1EEC2B8ue170006ENS_16__value_init_tagE, symObjAddr: 0x404C, symBinAddr: 0x100007168, symSize: 0x2C }
  - { offsetInCU: 0x16740, offset: 0x16740, size: 0x8, addend: 0x0, symName: __ZNSt3__115__tree_end_nodeIPNS_16__tree_node_baseIPvEEEC1B8ue170006Ev, symObjAddr: 0x4078, symBinAddr: 0x100007194, symSize: 0x2C }
  - { offsetInCU: 0x1676A, offset: 0x1676A, size: 0x8, addend: 0x0, symName: __ZNSt3__115__tree_end_nodeIPNS_16__tree_node_baseIPvEEEC2B8ue170006Ev, symObjAddr: 0x40A4, symBinAddr: 0x1000071C0, symSize: 0x18 }
  - { offsetInCU: 0x16794, offset: 0x16794, size: 0x8, addend: 0x0, symName: __ZNSt3__19allocatorINS_11__tree_nodeINS_12basic_stringIcNS_11char_traitsIcEENS0_IcEEEEPvEEEC2B8ue170006Ev, symObjAddr: 0x40BC, symBinAddr: 0x1000071D8, symSize: 0x2C }
  - { offsetInCU: 0x167BE, offset: 0x167BE, size: 0x8, addend: 0x0, symName: __ZNSt3__116__non_trivial_ifILb1ENS_9allocatorINS_11__tree_nodeINS_12basic_stringIcNS_11char_traitsIcEENS1_IcEEEEPvEEEEEC2B8ue170006Ev, symObjAddr: 0x40E8, symBinAddr: 0x100007204, symSize: 0x14 }
  - { offsetInCU: 0x167E8, offset: 0x167E8, size: 0x8, addend: 0x0, symName: __ZNSt3__117__compressed_pairImNS_4lessINS_12basic_stringIcNS_11char_traitsIcEENS_9allocatorIcEEEEEEEC2B8ue170006IiRKS8_EEOT_OT0_, symObjAddr: 0x40FC, symBinAddr: 0x100007218, symSize: 0x44 }
  - { offsetInCU: 0x16840, offset: 0x16840, size: 0x8, addend: 0x0, symName: __ZNSt3__122__compressed_pair_elemImLi0ELb0EEC2B8ue170006IivEEOT_, symObjAddr: 0x4140, symBinAddr: 0x10000725C, symSize: 0x24 }
  - { offsetInCU: 0x16882, offset: 0x16882, size: 0x8, addend: 0x0, symName: __ZNSt3__122__compressed_pair_elemINS_4lessINS_12basic_stringIcNS_11char_traitsIcEENS_9allocatorIcEEEEEELi1ELb1EEC2B8ue170006IRKS8_vEEOT_, symObjAddr: 0x4164, symBinAddr: 0x100007280, symSize: 0x18 }
  - { offsetInCU: 0x168C4, offset: 0x168C4, size: 0x8, addend: 0x0, symName: __ZNSt3__114pointer_traitsIPNS_15__tree_end_nodeIPNS_16__tree_node_baseIPvEEEEE10pointer_toB8ue170006ERS6_, symObjAddr: 0x417C, symBinAddr: 0x100007298, symSize: 0x14 }
  - { offsetInCU: 0x168E7, offset: 0x168E7, size: 0x8, addend: 0x0, symName: __ZNSt3__117__compressed_pairINS_15__tree_end_nodeIPNS_16__tree_node_baseIPvEEEENS_9allocatorINS_11__tree_nodeINS_12basic_stringIcNS_11char_traitsIcEENS7_IcEEEES3_EEEEE5firstB8ue170006Ev, symObjAddr: 0x4190, symBinAddr: 0x1000072AC, symSize: 0x24 }
  - { offsetInCU: 0x1690D, offset: 0x1690D, size: 0x8, addend: 0x0, symName: __ZNSt3__122__compressed_pair_elemINS_15__tree_end_nodeIPNS_16__tree_node_baseIPvEEEELi0ELb0EE5__getB8ue170006Ev, symObjAddr: 0x41B4, symBinAddr: 0x1000072D0, symSize: 0x14 }
  - { offsetInCU: 0x16933, offset: 0x16933, size: 0x8, addend: 0x0, symName: __ZN6AlumnoD2Ev, symObjAddr: 0x41C8, symBinAddr: 0x1000072E4, symSize: 0x134 }
  - { offsetInCU: 0x1695F, offset: 0x1695F, size: 0x8, addend: 0x0, symName: __ZNSt3__13setINS_12basic_stringIcNS_11char_traitsIcEENS_9allocatorIcEEEENS_4lessIS6_EENS4_IS6_EEED1B8ue170006Ev, symObjAddr: 0x42FC, symBinAddr: 0x100007418, symSize: 0x2C }
  - { offsetInCU: 0x16989, offset: 0x16989, size: 0x8, addend: 0x0, symName: __ZNSt3__13setINS_12basic_stringIcNS_11char_traitsIcEENS_9allocatorIcEEEENS_4lessIS6_EENS4_IS6_EEED2B8ue170006Ev, symObjAddr: 0x4328, symBinAddr: 0x100007444, symSize: 0x2C }
  - { offsetInCU: 0x169B3, offset: 0x169B3, size: 0x8, addend: 0x0, symName: __ZNSt3__16__treeINS_12basic_stringIcNS_11char_traitsIcEENS_9allocatorIcEEEENS_4lessIS6_EENS4_IS6_EEED1Ev, symObjAddr: 0x4354, symBinAddr: 0x100007470, symSize: 0x2C }
  - { offsetInCU: 0x169DF, offset: 0x169DF, size: 0x8, addend: 0x0, symName: __ZNSt3__16__treeINS_12basic_stringIcNS_11char_traitsIcEENS_9allocatorIcEEEENS_4lessIS6_EENS4_IS6_EEED2Ev, symObjAddr: 0x4380, symBinAddr: 0x10000749C, symSize: 0x38 }
  - { offsetInCU: 0x16A0B, offset: 0x16A0B, size: 0x8, addend: 0x0, symName: __ZNSt3__16__treeINS_12basic_stringIcNS_11char_traitsIcEENS_9allocatorIcEEEENS_4lessIS6_EENS4_IS6_EEE7destroyEPNS_11__tree_nodeIS6_PvEE, symObjAddr: 0x43B8, symBinAddr: 0x1000074D4, symSize: 0xC0 }
  - { offsetInCU: 0x16A5F, offset: 0x16A5F, size: 0x8, addend: 0x0, symName: __ZNKSt3__16__treeINS_12basic_stringIcNS_11char_traitsIcEENS_9allocatorIcEEEENS_4lessIS6_EENS4_IS6_EEE6__rootB8ue170006Ev, symObjAddr: 0x4478, symBinAddr: 0x100007594, symSize: 0x28 }
  - { offsetInCU: 0x16A85, offset: 0x16A85, size: 0x8, addend: 0x0, symName: __ZNSt3__16__treeINS_12basic_stringIcNS_11char_traitsIcEENS_9allocatorIcEEEENS_4lessIS6_EENS4_IS6_EEE12__node_allocB8ue170006Ev, symObjAddr: 0x44A0, symBinAddr: 0x1000075BC, symSize: 0x28 }
  - { offsetInCU: 0x16AAB, offset: 0x16AAB, size: 0x8, addend: 0x0, symName: __ZNSt3__116allocator_traitsINS_9allocatorINS_11__tree_nodeINS_12basic_stringIcNS_11char_traitsIcEENS1_IcEEEEPvEEEEE7destroyB8ue170006IS7_vvEEvRSA_PT_, symObjAddr: 0x44C8, symBinAddr: 0x1000075E4, symSize: 0x28 }
  - { offsetInCU: 0x16AE6, offset: 0x16AE6, size: 0x8, addend: 0x0, symName: __ZNSt3__122__tree_key_value_typesINS_12basic_stringIcNS_11char_traitsIcEENS_9allocatorIcEEEEE9__get_ptrB8ue170006ERS6_, symObjAddr: 0x44F0, symBinAddr: 0x10000760C, symSize: 0x14 }
  - { offsetInCU: 0x16B0A, offset: 0x16B0A, size: 0x8, addend: 0x0, symName: __ZNSt3__116allocator_traitsINS_9allocatorINS_11__tree_nodeINS_12basic_stringIcNS_11char_traitsIcEENS1_IcEEEEPvEEEEE10deallocateB8ue170006ERSA_PS9_m, symObjAddr: 0x4504, symBinAddr: 0x100007620, symSize: 0x34 }
  - { offsetInCU: 0x16B4C, offset: 0x16B4C, size: 0x8, addend: 0x0, symName: __ZNSt3__117__compressed_pairINS_15__tree_end_nodeIPNS_16__tree_node_baseIPvEEEENS_9allocatorINS_11__tree_nodeINS_12basic_stringIcNS_11char_traitsIcEENS7_IcEEEES3_EEEEE6secondB8ue170006Ev, symObjAddr: 0x4538, symBinAddr: 0x100007654, symSize: 0x24 }
  - { offsetInCU: 0x16B72, offset: 0x16B72, size: 0x8, addend: 0x0, symName: __ZNSt3__122__compressed_pair_elemINS_9allocatorINS_11__tree_nodeINS_12basic_stringIcNS_11char_traitsIcEENS1_IcEEEEPvEEEELi1ELb1EE5__getB8ue170006Ev, symObjAddr: 0x455C, symBinAddr: 0x100007678, symSize: 0x14 }
  - { offsetInCU: 0x16B98, offset: 0x16B98, size: 0x8, addend: 0x0, symName: __ZNSt3__19allocatorINS_11__tree_nodeINS_12basic_stringIcNS_11char_traitsIcEENS0_IcEEEEPvEEE10deallocateB8ue170006EPS8_m, symObjAddr: 0x4570, symBinAddr: 0x10000768C, symSize: 0x74 }
  - { offsetInCU: 0x16BDA, offset: 0x16BDA, size: 0x8, addend: 0x0, symName: __ZNKSt3__16__treeINS_12basic_stringIcNS_11char_traitsIcEENS_9allocatorIcEEEENS_4lessIS6_EENS4_IS6_EEE10__end_nodeB8ue170006Ev, symObjAddr: 0x45E4, symBinAddr: 0x100007700, symSize: 0x2C }
  - { offsetInCU: 0x16C00, offset: 0x16C00, size: 0x8, addend: 0x0, symName: __ZNKSt3__117__compressed_pairINS_15__tree_end_nodeIPNS_16__tree_node_baseIPvEEEENS_9allocatorINS_11__tree_nodeINS_12basic_stringIcNS_11char_traitsIcEENS7_IcEEEES3_EEEEE5firstB8ue170006Ev, symObjAddr: 0x4610, symBinAddr: 0x10000772C, symSize: 0x24 }
  - { offsetInCU: 0x16C26, offset: 0x16C26, size: 0x8, addend: 0x0, symName: __ZNKSt3__122__compressed_pair_elemINS_15__tree_end_nodeIPNS_16__tree_node_baseIPvEEEELi0ELb0EE5__getB8ue170006Ev, symObjAddr: 0x4634, symBinAddr: 0x100007750, symSize: 0x14 }
  - { offsetInCU: 0x16C4C, offset: 0x16C4C, size: 0x8, addend: 0x0, symName: __ZN6AlumnoC2ERKS_, symObjAddr: 0x4648, symBinAddr: 0x100007764, symSize: 0x168 }
  - { offsetInCU: 0x16C81, offset: 0x16C81, size: 0x8, addend: 0x0, symName: __ZNSt3__13setINS_12basic_stringIcNS_11char_traitsIcEENS_9allocatorIcEEEENS_4lessIS6_EENS4_IS6_EEEC1B8ue170006ERKSA_, symObjAddr: 0x47B0, symBinAddr: 0x1000078CC, symSize: 0x34 }
  - { offsetInCU: 0x16CBA, offset: 0x16CBA, size: 0x8, addend: 0x0, symName: __ZNSt3__13setINS_12basic_stringIcNS_11char_traitsIcEENS_9allocatorIcEEEENS_4lessIS6_EENS4_IS6_EEEC2B8ue170006ERKSA_, symObjAddr: 0x47E4, symBinAddr: 0x100007900, symSize: 0x90 }
  - { offsetInCU: 0x16CF3, offset: 0x16CF3, size: 0x8, addend: 0x0, symName: __ZNSt3__16__treeINS_12basic_stringIcNS_11char_traitsIcEENS_9allocatorIcEEEENS_4lessIS6_EENS4_IS6_EEEC1ERKSA_, symObjAddr: 0x4874, symBinAddr: 0x100007990, symSize: 0x34 }
  - { offsetInCU: 0x16D2E, offset: 0x16D2E, size: 0x8, addend: 0x0, symName: __ZNSt3__13setINS_12basic_stringIcNS_11char_traitsIcEENS_9allocatorIcEEEENS_4lessIS6_EENS4_IS6_EEE6insertB8ue170006INS_21__tree_const_iteratorIS6_PNS_11__tree_nodeIS6_PvEElEEEEvT_SI_, symObjAddr: 0x48A8, symBinAddr: 0x1000079C4, symSize: 0x80 }
  - { offsetInCU: 0x16D98, offset: 0x16D98, size: 0x8, addend: 0x0, symName: __ZNKSt3__13setINS_12basic_stringIcNS_11char_traitsIcEENS_9allocatorIcEEEENS_4lessIS6_EENS4_IS6_EEE5beginB8ue170006Ev, symObjAddr: 0x4928, symBinAddr: 0x100007A44, symSize: 0x2C }
  - { offsetInCU: 0x16DBE, offset: 0x16DBE, size: 0x8, addend: 0x0, symName: __ZNKSt3__13setINS_12basic_stringIcNS_11char_traitsIcEENS_9allocatorIcEEEENS_4lessIS6_EENS4_IS6_EEE3endB8ue170006Ev, symObjAddr: 0x4954, symBinAddr: 0x100007A70, symSize: 0x2C }
  - { offsetInCU: 0x16DE4, offset: 0x16DE4, size: 0x8, addend: 0x0, symName: __ZNSt3__16__treeINS_12basic_stringIcNS_11char_traitsIcEENS_9allocatorIcEEEENS_4lessIS6_EENS4_IS6_EEEC2ERKSA_, symObjAddr: 0x4980, symBinAddr: 0x100007A9C, symSize: 0x9C }
  - { offsetInCU: 0x16E29, offset: 0x16E29, size: 0x8, addend: 0x0, symName: __ZNSt3__116allocator_traitsINS_9allocatorINS_11__tree_nodeINS_12basic_stringIcNS_11char_traitsIcEENS1_IcEEEEPvEEEEE37select_on_container_copy_constructionB8ue170006ISA_vvEESA_RKSA_, symObjAddr: 0x4A1C, symBinAddr: 0x100007B38, symSize: 0x10 }
  - { offsetInCU: 0x16E58, offset: 0x16E58, size: 0x8, addend: 0x0, symName: __ZNKSt3__16__treeINS_12basic_stringIcNS_11char_traitsIcEENS_9allocatorIcEEEENS_4lessIS6_EENS4_IS6_EEE12__node_allocB8ue170006Ev, symObjAddr: 0x4A2C, symBinAddr: 0x100007B48, symSize: 0x28 }
  - { offsetInCU: 0x16E88, offset: 0x16E88, size: 0x8, addend: 0x0, symName: __ZNSt3__117__compressed_pairINS_15__tree_end_nodeIPNS_16__tree_node_baseIPvEEEENS_9allocatorINS_11__tree_nodeINS_12basic_stringIcNS_11char_traitsIcEENS7_IcEEEES3_EEEEEC1B8ue170006INS_18__default_init_tagESF_EEOT_OT0_, symObjAddr: 0x4A54, symBinAddr: 0x100007B70, symSize: 0x3C }
  - { offsetInCU: 0x16EE0, offset: 0x16EE0, size: 0x8, addend: 0x0, symName: __ZNKSt3__16__treeINS_12basic_stringIcNS_11char_traitsIcEENS_9allocatorIcEEEENS_4lessIS6_EENS4_IS6_EEE10value_compB8ue170006Ev, symObjAddr: 0x4A90, symBinAddr: 0x100007BAC, symSize: 0x28 }
  - { offsetInCU: 0x16F06, offset: 0x16F06, size: 0x8, addend: 0x0, symName: __ZNKSt3__117__compressed_pairINS_15__tree_end_nodeIPNS_16__tree_node_baseIPvEEEENS_9allocatorINS_11__tree_nodeINS_12basic_stringIcNS_11char_traitsIcEENS7_IcEEEES3_EEEEE6secondB8ue170006Ev, symObjAddr: 0x4AB8, symBinAddr: 0x100007BD4, symSize: 0x24 }
  - { offsetInCU: 0x16F2C, offset: 0x16F2C, size: 0x8, addend: 0x0, symName: __ZNKSt3__122__compressed_pair_elemINS_9allocatorINS_11__tree_nodeINS_12basic_stringIcNS_11char_traitsIcEENS1_IcEEEEPvEEEELi1ELb1EE5__getB8ue170006Ev, symObjAddr: 0x4ADC, symBinAddr: 0x100007BF8, symSize: 0x14 }
  - { offsetInCU: 0x16F52, offset: 0x16F52, size: 0x8, addend: 0x0, symName: __ZNSt3__117__compressed_pairINS_15__tree_end_nodeIPNS_16__tree_node_baseIPvEEEENS_9allocatorINS_11__tree_nodeINS_12basic_stringIcNS_11char_traitsIcEENS7_IcEEEES3_EEEEEC2B8ue170006INS_18__default_init_tagESF_EEOT_OT0_, symObjAddr: 0x4AF0, symBinAddr: 0x100007C0C, symSize: 0x40 }
  - { offsetInCU: 0x16FAA, offset: 0x16FAA, size: 0x8, addend: 0x0, symName: __ZNSt3__122__compressed_pair_elemINS_15__tree_end_nodeIPNS_16__tree_node_baseIPvEEEELi0ELb0EEC2B8ue170006ENS_18__default_init_tagE, symObjAddr: 0x4B30, symBinAddr: 0x100007C4C, symSize: 0x2C }
  - { offsetInCU: 0x16FDE, offset: 0x16FDE, size: 0x8, addend: 0x0, symName: __ZNSt3__122__compressed_pair_elemINS_9allocatorINS_11__tree_nodeINS_12basic_stringIcNS_11char_traitsIcEENS1_IcEEEEPvEEEELi1ELb1EEC2B8ue170006ISA_vEEOT_, symObjAddr: 0x4B5C, symBinAddr: 0x100007C78, symSize: 0x18 }
  - { offsetInCU: 0x17020, offset: 0x17020, size: 0x8, addend: 0x0, symName: __ZNKSt3__117__compressed_pairImNS_4lessINS_12basic_stringIcNS_11char_traitsIcEENS_9allocatorIcEEEEEEE6secondB8ue170006Ev, symObjAddr: 0x4B74, symBinAddr: 0x100007C90, symSize: 0x24 }
  - { offsetInCU: 0x17046, offset: 0x17046, size: 0x8, addend: 0x0, symName: __ZNKSt3__122__compressed_pair_elemINS_4lessINS_12basic_stringIcNS_11char_traitsIcEENS_9allocatorIcEEEEEELi1ELb1EE5__getB8ue170006Ev, symObjAddr: 0x4B98, symBinAddr: 0x100007CB4, symSize: 0x14 }
  - { offsetInCU: 0x1706C, offset: 0x1706C, size: 0x8, addend: 0x0, symName: __ZNKSt3__13setINS_12basic_stringIcNS_11char_traitsIcEENS_9allocatorIcEEEENS_4lessIS6_EENS4_IS6_EEE4cendB8ue170006Ev, symObjAddr: 0x4BAC, symBinAddr: 0x100007CC8, symSize: 0x2C }
  - { offsetInCU: 0x17092, offset: 0x17092, size: 0x8, addend: 0x0, symName: __ZNSt3__16__treeINS_12basic_stringIcNS_11char_traitsIcEENS_9allocatorIcEEEENS_4lessIS6_EENS4_IS6_EEE15__insert_uniqueB8ue170006ENS_21__tree_const_iteratorIS6_PNS_11__tree_nodeIS6_PvEElEERKS6_, symObjAddr: 0x4C0C, symBinAddr: 0x100007D28, symSize: 0x64 }
  - { offsetInCU: 0x170D6, offset: 0x170D6, size: 0x8, addend: 0x0, symName: __ZNKSt3__121__tree_const_iteratorINS_12basic_stringIcNS_11char_traitsIcEENS_9allocatorIcEEEEPNS_11__tree_nodeIS6_PvEElEdeB8ue170006Ev, symObjAddr: 0x4C70, symBinAddr: 0x100007D8C, symSize: 0x28 }
  - { offsetInCU: 0x170FC, offset: 0x170FC, size: 0x8, addend: 0x0, symName: __ZNSt3__121__tree_const_iteratorINS_12basic_stringIcNS_11char_traitsIcEENS_9allocatorIcEEEEPNS_11__tree_nodeIS6_PvEElEppB8ue170006Ev, symObjAddr: 0x4C98, symBinAddr: 0x100007DB4, symSize: 0x38 }
  - { offsetInCU: 0x17122, offset: 0x17122, size: 0x8, addend: 0x0, symName: __ZNSt3__16__treeINS_12basic_stringIcNS_11char_traitsIcEENS_9allocatorIcEEEENS_4lessIS6_EENS4_IS6_EEE30__emplace_hint_unique_key_argsIS6_JRKS6_EEENS_4pairINS_15__tree_iteratorIS6_PNS_11__tree_nodeIS6_PvEElEEbEENS_21__tree_const_iteratorIS6_SJ_lEERKT_DpOT0_, symObjAddr: 0x4D00, symBinAddr: 0x100007E1C, symSize: 0x104 }
  - { offsetInCU: 0x171EE, offset: 0x171EE, size: 0x8, addend: 0x0, symName: __ZNSt3__122__tree_key_value_typesINS_12basic_stringIcNS_11char_traitsIcEENS_9allocatorIcEEEEE9__get_keyB8ue170006ERKS6_, symObjAddr: 0x4E04, symBinAddr: 0x100007F20, symSize: 0x14 }
  - { offsetInCU: 0x17212, offset: 0x17212, size: 0x8, addend: 0x0, symName: __ZNSt3__16__treeINS_12basic_stringIcNS_11char_traitsIcEENS_9allocatorIcEEEENS_4lessIS6_EENS4_IS6_EEE12__find_equalIS6_EERPNS_16__tree_node_baseIPvEENS_21__tree_const_iteratorIS6_PNS_11__tree_nodeIS6_SD_EElEERPNS_15__tree_end_nodeISF_EESG_RKT_, symObjAddr: 0x4E18, symBinAddr: 0x100007F34, symSize: 0x304 }
  - { offsetInCU: 0x172BB, offset: 0x172BB, size: 0x8, addend: 0x0, symName: __ZNSt3__16__treeINS_12basic_stringIcNS_11char_traitsIcEENS_9allocatorIcEEEENS_4lessIS6_EENS4_IS6_EEE16__construct_nodeIJRKS6_EEENS_10unique_ptrINS_11__tree_nodeIS6_PvEENS_22__tree_node_destructorINS4_ISH_EEEEEEDpOT_, symObjAddr: 0x511C, symBinAddr: 0x100008238, symSize: 0x110 }
  - { offsetInCU: 0x1731C, offset: 0x1731C, size: 0x8, addend: 0x0, symName: __ZNSt3__16__treeINS_12basic_stringIcNS_11char_traitsIcEENS_9allocatorIcEEEENS_4lessIS6_EENS4_IS6_EEE16__insert_node_atEPNS_15__tree_end_nodeIPNS_16__tree_node_baseIPvEEEERSF_SF_, symObjAddr: 0x522C, symBinAddr: 0x100008348, symSize: 0xCC }
  - { offsetInCU: 0x17371, offset: 0x17371, size: 0x8, addend: 0x0, symName: __ZNKSt3__110unique_ptrINS_11__tree_nodeINS_12basic_stringIcNS_11char_traitsIcEENS_9allocatorIcEEEEPvEENS_22__tree_node_destructorINS5_IS9_EEEEE3getB8ue170006Ev, symObjAddr: 0x52F8, symBinAddr: 0x100008414, symSize: 0x28 }
  - { offsetInCU: 0x17397, offset: 0x17397, size: 0x8, addend: 0x0, symName: __ZNSt3__110unique_ptrINS_11__tree_nodeINS_12basic_stringIcNS_11char_traitsIcEENS_9allocatorIcEEEEPvEENS_22__tree_node_destructorINS5_IS9_EEEEE7releaseB8ue170006Ev, symObjAddr: 0x5320, symBinAddr: 0x10000843C, symSize: 0x44 }
  - { offsetInCU: 0x173CC, offset: 0x173CC, size: 0x8, addend: 0x0, symName: __ZNSt3__110unique_ptrINS_11__tree_nodeINS_12basic_stringIcNS_11char_traitsIcEENS_9allocatorIcEEEEPvEENS_22__tree_node_destructorINS5_IS9_EEEEED1B8ue170006Ev, symObjAddr: 0x5364, symBinAddr: 0x100008480, symSize: 0x2C }
  - { offsetInCU: 0x173F6, offset: 0x173F6, size: 0x8, addend: 0x0, symName: __ZNSt3__115__tree_iteratorINS_12basic_stringIcNS_11char_traitsIcEENS_9allocatorIcEEEEPNS_11__tree_nodeIS6_PvEElEC1B8ue170006ESA_, symObjAddr: 0x5390, symBinAddr: 0x1000084AC, symSize: 0x34 }
  - { offsetInCU: 0x1742F, offset: 0x1742F, size: 0x8, addend: 0x0, symName: __ZNSt3__14pairINS_15__tree_iteratorINS_12basic_stringIcNS_11char_traitsIcEENS_9allocatorIcEEEEPNS_11__tree_nodeIS7_PvEElEEbEC1B8ue170006ERKSC_RKb, symObjAddr: 0x53C4, symBinAddr: 0x1000084E0, symSize: 0x3C }
  - { offsetInCU: 0x17475, offset: 0x17475, size: 0x8, addend: 0x0, symName: __ZNSt3__16__treeINS_12basic_stringIcNS_11char_traitsIcEENS_9allocatorIcEEEENS_4lessIS6_EENS4_IS6_EEE3endB8ue170006Ev, symObjAddr: 0x5400, symBinAddr: 0x10000851C, symSize: 0x34 }
  - { offsetInCU: 0x1749B, offset: 0x1749B, size: 0x8, addend: 0x0, symName: __ZNSt3__121__tree_const_iteratorINS_12basic_stringIcNS_11char_traitsIcEENS_9allocatorIcEEEEPNS_11__tree_nodeIS6_PvEElEC1B8ue170006ENS_15__tree_iteratorIS6_SA_lEE, symObjAddr: 0x5434, symBinAddr: 0x100008550, symSize: 0x34 }
  - { offsetInCU: 0x174D4, offset: 0x174D4, size: 0x8, addend: 0x0, symName: __ZNSt3__16__treeINS_12basic_stringIcNS_11char_traitsIcEENS_9allocatorIcEEEENS_4lessIS6_EENS4_IS6_EEE10value_compB8ue170006Ev, symObjAddr: 0x5468, symBinAddr: 0x100008584, symSize: 0x28 }
  - { offsetInCU: 0x174FA, offset: 0x174FA, size: 0x8, addend: 0x0, symName: __ZNKSt3__14lessINS_12basic_stringIcNS_11char_traitsIcEENS_9allocatorIcEEEEEclB8ue170006ERKS6_S9_, symObjAddr: 0x5490, symBinAddr: 0x1000085AC, symSize: 0x34 }
  - { offsetInCU: 0x1753E, offset: 0x1753E, size: 0x8, addend: 0x0, symName: __ZNSt3__16__treeINS_12basic_stringIcNS_11char_traitsIcEENS_9allocatorIcEEEENS_4lessIS6_EENS4_IS6_EEE5beginB8ue170006Ev, symObjAddr: 0x54C4, symBinAddr: 0x1000085E0, symSize: 0x34 }
  - { offsetInCU: 0x17564, offset: 0x17564, size: 0x8, addend: 0x0, symName: __ZNSt3__121__tree_const_iteratorINS_12basic_stringIcNS_11char_traitsIcEENS_9allocatorIcEEEEPNS_11__tree_nodeIS6_PvEElEmmB8ue170006Ev, symObjAddr: 0x54F8, symBinAddr: 0x100008614, symSize: 0x38 }
  - { offsetInCU: 0x1758A, offset: 0x1758A, size: 0x8, addend: 0x0, symName: __ZNSt3__16__treeINS_12basic_stringIcNS_11char_traitsIcEENS_9allocatorIcEEEENS_4lessIS6_EENS4_IS6_EEE12__find_equalIS6_EERPNS_16__tree_node_baseIPvEERPNS_15__tree_end_nodeISF_EERKT_, symObjAddr: 0x5530, symBinAddr: 0x10000864C, symSize: 0x184 }
  - { offsetInCU: 0x175F7, offset: 0x175F7, size: 0x8, addend: 0x0, symName: __ZNKSt3__121__tree_const_iteratorINS_12basic_stringIcNS_11char_traitsIcEENS_9allocatorIcEEEEPNS_11__tree_nodeIS6_PvEElE8__get_npB8ue170006Ev, symObjAddr: 0x56F0, symBinAddr: 0x10000880C, symSize: 0x18 }
  - { offsetInCU: 0x1761D, offset: 0x1761D, size: 0x8, addend: 0x0, symName: __ZNSt3__115__tree_iteratorINS_12basic_stringIcNS_11char_traitsIcEENS_9allocatorIcEEEEPNS_11__tree_nodeIS6_PvEElEC1B8ue170006EPNS_15__tree_end_nodeIPNS_16__tree_node_baseIS8_EEEE, symObjAddr: 0x5708, symBinAddr: 0x100008824, symSize: 0x34 }
  - { offsetInCU: 0x17656, offset: 0x17656, size: 0x8, addend: 0x0, symName: __ZNSt3__115__tree_iteratorINS_12basic_stringIcNS_11char_traitsIcEENS_9allocatorIcEEEEPNS_11__tree_nodeIS6_PvEElEC2B8ue170006EPNS_15__tree_end_nodeIPNS_16__tree_node_baseIS8_EEEE, symObjAddr: 0x573C, symBinAddr: 0x100008858, symSize: 0x20 }
  - { offsetInCU: 0x1768F, offset: 0x1768F, size: 0x8, addend: 0x0, symName: __ZNSt3__121__tree_const_iteratorINS_12basic_stringIcNS_11char_traitsIcEENS_9allocatorIcEEEEPNS_11__tree_nodeIS6_PvEElEC2B8ue170006ENS_15__tree_iteratorIS6_SA_lEE, symObjAddr: 0x575C, symBinAddr: 0x100008878, symSize: 0x20 }
  - { offsetInCU: 0x176C8, offset: 0x176C8, size: 0x8, addend: 0x0, symName: __ZNSt3__117__compressed_pairImNS_4lessINS_12basic_stringIcNS_11char_traitsIcEENS_9allocatorIcEEEEEEE6secondB8ue170006Ev, symObjAddr: 0x577C, symBinAddr: 0x100008898, symSize: 0x24 }
  - { offsetInCU: 0x176EE, offset: 0x176EE, size: 0x8, addend: 0x0, symName: __ZNSt3__122__compressed_pair_elemINS_4lessINS_12basic_stringIcNS_11char_traitsIcEENS_9allocatorIcEEEEEELi1ELb1EE5__getB8ue170006Ev, symObjAddr: 0x57A0, symBinAddr: 0x1000088BC, symSize: 0x14 }
  - { offsetInCU: 0x17714, offset: 0x17714, size: 0x8, addend: 0x0, symName: __ZNKSt3__112basic_stringIcNS_11char_traitsIcEENS_9allocatorIcEEE7compareB8ue170006ERKS5_, symObjAddr: 0x57EC, symBinAddr: 0x100008908, symSize: 0x4C }
  - { offsetInCU: 0x1774B, offset: 0x1774B, size: 0x8, addend: 0x0, symName: __ZNKSt3__112basic_stringIcNS_11char_traitsIcEENS_9allocatorIcEEE7compareINS_17basic_string_viewIcS2_EELi0EEEiRKT_, symObjAddr: 0x5838, symBinAddr: 0x100008954, symSize: 0x140 }
  - { offsetInCU: 0x177CE, offset: 0x177CE, size: 0x8, addend: 0x0, symName: __ZNKSt3__112basic_stringIcNS_11char_traitsIcEENS_9allocatorIcEEEcvNS_17basic_string_viewIcS2_EEB8ue170006Ev, symObjAddr: 0x5978, symBinAddr: 0x100008A94, symSize: 0x50 }
  - { offsetInCU: 0x177F4, offset: 0x177F4, size: 0x8, addend: 0x0, symName: __ZNKSt3__112basic_stringIcNS_11char_traitsIcEENS_9allocatorIcEEE4sizeB8ue170006Ev, symObjAddr: 0x59C8, symBinAddr: 0x100008AE4, symSize: 0x54 }
  - { offsetInCU: 0x1781A, offset: 0x1781A, size: 0x8, addend: 0x0, symName: __ZNKSt3__117basic_string_viewIcNS_11char_traitsIcEEE4sizeB8ue170006Ev, symObjAddr: 0x5A1C, symBinAddr: 0x100008B38, symSize: 0x18 }
  - { offsetInCU: 0x17840, offset: 0x17840, size: 0x8, addend: 0x0, symName: __ZNSt3__111char_traitsIcE7compareB8ue170006EPKcS3_m, symObjAddr: 0x5A34, symBinAddr: 0x100008B50, symSize: 0x64 }
  - { offsetInCU: 0x1787F, offset: 0x1787F, size: 0x8, addend: 0x0, symName: __ZNKSt3__112basic_stringIcNS_11char_traitsIcEENS_9allocatorIcEEE4dataB8ue170006Ev, symObjAddr: 0x5A98, symBinAddr: 0x100008BB4, symSize: 0x28 }
  - { offsetInCU: 0x178A5, offset: 0x178A5, size: 0x8, addend: 0x0, symName: __ZNKSt3__117basic_string_viewIcNS_11char_traitsIcEEE4dataB8ue170006Ev, symObjAddr: 0x5AC0, symBinAddr: 0x100008BDC, symSize: 0x18 }
  - { offsetInCU: 0x178CB, offset: 0x178CB, size: 0x8, addend: 0x0, symName: __ZNKSt3__112basic_stringIcNS_11char_traitsIcEENS_9allocatorIcEEE9__is_longB8ue170006Ev, symObjAddr: 0x5B04, symBinAddr: 0x100008C20, symSize: 0x74 }
  - { offsetInCU: 0x178F1, offset: 0x178F1, size: 0x8, addend: 0x0, symName: __ZNKSt3__112basic_stringIcNS_11char_traitsIcEENS_9allocatorIcEEE15__get_long_sizeB8ue170006Ev, symObjAddr: 0x5B78, symBinAddr: 0x100008C94, symSize: 0x28 }
  - { offsetInCU: 0x17917, offset: 0x17917, size: 0x8, addend: 0x0, symName: __ZNKSt3__112basic_stringIcNS_11char_traitsIcEENS_9allocatorIcEEE16__get_short_sizeB8ue170006Ev, symObjAddr: 0x5BA0, symBinAddr: 0x100008CBC, symSize: 0x34 }
  - { offsetInCU: 0x1793D, offset: 0x1793D, size: 0x8, addend: 0x0, symName: __ZNKSt3__117__compressed_pairINS_12basic_stringIcNS_11char_traitsIcEENS_9allocatorIcEEE5__repES5_E5firstB8ue170006Ev, symObjAddr: 0x5BD4, symBinAddr: 0x100008CF0, symSize: 0x24 }
  - { offsetInCU: 0x17963, offset: 0x17963, size: 0x8, addend: 0x0, symName: __ZNKSt3__122__compressed_pair_elemINS_12basic_stringIcNS_11char_traitsIcEENS_9allocatorIcEEE5__repELi0ELb0EE5__getB8ue170006Ev, symObjAddr: 0x5BF8, symBinAddr: 0x100008D14, symSize: 0x14 }
  - { offsetInCU: 0x17989, offset: 0x17989, size: 0x8, addend: 0x0, symName: __ZNKSt3__112basic_stringIcNS_11char_traitsIcEENS_9allocatorIcEEE13__get_pointerB8ue170006Ev, symObjAddr: 0x5C20, symBinAddr: 0x100008D3C, symSize: 0x54 }
  - { offsetInCU: 0x179AF, offset: 0x179AF, size: 0x8, addend: 0x0, symName: __ZNKSt3__112basic_stringIcNS_11char_traitsIcEENS_9allocatorIcEEE18__get_long_pointerB8ue170006Ev, symObjAddr: 0x5C74, symBinAddr: 0x100008D90, symSize: 0x28 }
  - { offsetInCU: 0x179D5, offset: 0x179D5, size: 0x8, addend: 0x0, symName: __ZNKSt3__112basic_stringIcNS_11char_traitsIcEENS_9allocatorIcEEE19__get_short_pointerB8ue170006Ev, symObjAddr: 0x5C9C, symBinAddr: 0x100008DB8, symSize: 0x28 }
  - { offsetInCU: 0x179FB, offset: 0x179FB, size: 0x8, addend: 0x0, symName: __ZNSt3__114pointer_traitsIPKcE10pointer_toB8ue170006ERS1_, symObjAddr: 0x5CC4, symBinAddr: 0x100008DE0, symSize: 0x14 }
  - { offsetInCU: 0x17A28, offset: 0x17A28, size: 0x8, addend: 0x0, symName: __ZNKSt3__16__lessIvvEclB8ue170006ImmEEbRKT_RKT0_, symObjAddr: 0x5D2C, symBinAddr: 0x100008E48, symSize: 0x34 }
  - { offsetInCU: 0x17A7C, offset: 0x17A7C, size: 0x8, addend: 0x0, symName: __ZNSt3__117basic_string_viewIcNS_11char_traitsIcEEEC1B8ue170006EPKcm, symObjAddr: 0x5D60, symBinAddr: 0x100008E7C, symSize: 0x3C }
  - { offsetInCU: 0x17AC4, offset: 0x17AC4, size: 0x8, addend: 0x0, symName: __ZNSt3__117basic_string_viewIcNS_11char_traitsIcEEEC2B8ue170006EPKcm, symObjAddr: 0x5D9C, symBinAddr: 0x100008EB8, symSize: 0x2C }
  - { offsetInCU: 0x17B0C, offset: 0x17B0C, size: 0x8, addend: 0x0, symName: __ZNKSt3__116__tree_node_baseIPvE15__parent_unsafeB8ue170006Ev, symObjAddr: 0x5EEC, symBinAddr: 0x100009008, symSize: 0x18 }
  - { offsetInCU: 0x17B32, offset: 0x17B32, size: 0x8, addend: 0x0, symName: __ZNKSt3__16__treeINS_12basic_stringIcNS_11char_traitsIcEENS_9allocatorIcEEEENS_4lessIS6_EENS4_IS6_EEE10__root_ptrB8ue170006Ev, symObjAddr: 0x5F04, symBinAddr: 0x100009020, symSize: 0x24 }
  - { offsetInCU: 0x17B58, offset: 0x17B58, size: 0x8, addend: 0x0, symName: __ZNSt3__116allocator_traitsINS_9allocatorINS_11__tree_nodeINS_12basic_stringIcNS_11char_traitsIcEENS1_IcEEEEPvEEEEE8allocateB8ue170006ERSA_m, symObjAddr: 0x6018, symBinAddr: 0x100009134, symSize: 0x2C }
  - { offsetInCU: 0x17B8B, offset: 0x17B8B, size: 0x8, addend: 0x0, symName: __ZNSt3__122__tree_node_destructorINS_9allocatorINS_11__tree_nodeINS_12basic_stringIcNS_11char_traitsIcEENS1_IcEEEEPvEEEEEC1B8ue170006ERSA_b, symObjAddr: 0x6044, symBinAddr: 0x100009160, symSize: 0x48 }
  - { offsetInCU: 0x17BD8, offset: 0x17BD8, size: 0x8, addend: 0x0, symName: __ZNSt3__110unique_ptrINS_11__tree_nodeINS_12basic_stringIcNS_11char_traitsIcEENS_9allocatorIcEEEEPvEENS_22__tree_node_destructorINS5_IS9_EEEEEC1B8ue170006ILb1EvEEPS9_NS_16__dependent_typeINS_27__unique_ptr_deleter_sfinaeISC_EEXT_EE20__good_rval_ref_typeE, symObjAddr: 0x608C, symBinAddr: 0x1000091A8, symSize: 0x3C }
  - { offsetInCU: 0x17C29, offset: 0x17C29, size: 0x8, addend: 0x0, symName: __ZNSt3__116allocator_traitsINS_9allocatorINS_11__tree_nodeINS_12basic_stringIcNS_11char_traitsIcEENS1_IcEEEEPvEEEEE9constructB8ue170006IS7_JRKS7_EvEEvRSA_PT_DpOT0_, symObjAddr: 0x60C8, symBinAddr: 0x1000091E4, symSize: 0x34 }
  - { offsetInCU: 0x17C80, offset: 0x17C80, size: 0x8, addend: 0x0, symName: __ZNKSt3__110unique_ptrINS_11__tree_nodeINS_12basic_stringIcNS_11char_traitsIcEENS_9allocatorIcEEEEPvEENS_22__tree_node_destructorINS5_IS9_EEEEEptB8ue170006Ev, symObjAddr: 0x60FC, symBinAddr: 0x100009218, symSize: 0x28 }
  - { offsetInCU: 0x17CA6, offset: 0x17CA6, size: 0x8, addend: 0x0, symName: __ZNSt3__110unique_ptrINS_11__tree_nodeINS_12basic_stringIcNS_11char_traitsIcEENS_9allocatorIcEEEEPvEENS_22__tree_node_destructorINS5_IS9_EEEEE11get_deleterB8ue170006Ev, symObjAddr: 0x6124, symBinAddr: 0x100009240, symSize: 0x24 }
  - { offsetInCU: 0x17CCC, offset: 0x17CCC, size: 0x8, addend: 0x0, symName: __ZNSt3__19allocatorINS_11__tree_nodeINS_12basic_stringIcNS_11char_traitsIcEENS0_IcEEEEPvEEE8allocateB8ue170006Em, symObjAddr: 0x6148, symBinAddr: 0x100009264, symSize: 0x8C }
  - { offsetInCU: 0x17D00, offset: 0x17D00, size: 0x8, addend: 0x0, symName: __ZNSt3__116allocator_traitsINS_9allocatorINS_11__tree_nodeINS_12basic_stringIcNS_11char_traitsIcEENS1_IcEEEEPvEEEEE8max_sizeB8ue170006ISA_vEEmRKSA_, symObjAddr: 0x61D4, symBinAddr: 0x1000092F0, symSize: 0x24 }
  - { offsetInCU: 0x17D2E, offset: 0x17D2E, size: 0x8, addend: 0x0, symName: __ZNKSt3__19allocatorINS_11__tree_nodeINS_12basic_stringIcNS_11char_traitsIcEENS0_IcEEEEPvEEE8max_sizeB8ue170006Ev, symObjAddr: 0x6254, symBinAddr: 0x100009370, symSize: 0x20 }
  - { offsetInCU: 0x17D54, offset: 0x17D54, size: 0x8, addend: 0x0, symName: __ZNSt3__122__tree_node_destructorINS_9allocatorINS_11__tree_nodeINS_12basic_stringIcNS_11char_traitsIcEENS1_IcEEEEPvEEEEEC2B8ue170006ERSA_b, symObjAddr: 0x6298, symBinAddr: 0x1000093B4, symSize: 0x38 }
  - { offsetInCU: 0x17D9C, offset: 0x17D9C, size: 0x8, addend: 0x0, symName: __ZNSt3__110unique_ptrINS_11__tree_nodeINS_12basic_stringIcNS_11char_traitsIcEENS_9allocatorIcEEEEPvEENS_22__tree_node_destructorINS5_IS9_EEEEEC2B8ue170006ILb1EvEEPS9_NS_16__dependent_typeINS_27__unique_ptr_deleter_sfinaeISC_EEXT_EE20__good_rval_ref_typeE, symObjAddr: 0x62D0, symBinAddr: 0x1000093EC, symSize: 0x5C }
  - { offsetInCU: 0x17DED, offset: 0x17DED, size: 0x8, addend: 0x0, symName: __ZNSt3__117__compressed_pairIPNS_11__tree_nodeINS_12basic_stringIcNS_11char_traitsIcEENS_9allocatorIcEEEEPvEENS_22__tree_node_destructorINS5_IS9_EEEEEC1B8ue170006IRSA_SD_EEOT_OT0_, symObjAddr: 0x632C, symBinAddr: 0x100009448, symSize: 0x3C }
  - { offsetInCU: 0x17E45, offset: 0x17E45, size: 0x8, addend: 0x0, symName: __ZNSt3__117__compressed_pairIPNS_11__tree_nodeINS_12basic_stringIcNS_11char_traitsIcEENS_9allocatorIcEEEEPvEENS_22__tree_node_destructorINS5_IS9_EEEEEC2B8ue170006IRSA_SD_EEOT_OT0_, symObjAddr: 0x6368, symBinAddr: 0x100009484, symSize: 0x48 }
  - { offsetInCU: 0x17E9D, offset: 0x17E9D, size: 0x8, addend: 0x0, symName: __ZNSt3__122__compressed_pair_elemIPNS_11__tree_nodeINS_12basic_stringIcNS_11char_traitsIcEENS_9allocatorIcEEEEPvEELi0ELb0EEC2B8ue170006IRSA_vEEOT_, symObjAddr: 0x63B0, symBinAddr: 0x1000094CC, symSize: 0x24 }
  - { offsetInCU: 0x17EDF, offset: 0x17EDF, size: 0x8, addend: 0x0, symName: __ZNSt3__122__compressed_pair_elemINS_22__tree_node_destructorINS_9allocatorINS_11__tree_nodeINS_12basic_stringIcNS_11char_traitsIcEENS2_IcEEEEPvEEEEEELi1ELb0EEC2B8ue170006ISC_vEEOT_, symObjAddr: 0x63D4, symBinAddr: 0x1000094F0, symSize: 0x24 }
  - { offsetInCU: 0x17F21, offset: 0x17F21, size: 0x8, addend: 0x0, symName: __ZNSt3__19allocatorINS_11__tree_nodeINS_12basic_stringIcNS_11char_traitsIcEENS0_IcEEEEPvEEE9constructB8ue170006IS6_JRKS6_EEEvPT_DpOT0_, symObjAddr: 0x63F8, symBinAddr: 0x100009514, symSize: 0x30 }
  - { offsetInCU: 0x17F77, offset: 0x17F77, size: 0x8, addend: 0x0, symName: __ZNKSt3__117__compressed_pairIPNS_11__tree_nodeINS_12basic_stringIcNS_11char_traitsIcEENS_9allocatorIcEEEEPvEENS_22__tree_node_destructorINS5_IS9_EEEEE5firstB8ue170006Ev, symObjAddr: 0x6428, symBinAddr: 0x100009544, symSize: 0x24 }
  - { offsetInCU: 0x17F9D, offset: 0x17F9D, size: 0x8, addend: 0x0, symName: __ZNKSt3__122__compressed_pair_elemIPNS_11__tree_nodeINS_12basic_stringIcNS_11char_traitsIcEENS_9allocatorIcEEEEPvEELi0ELb0EE5__getB8ue170006Ev, symObjAddr: 0x644C, symBinAddr: 0x100009568, symSize: 0x14 }
  - { offsetInCU: 0x17FC3, offset: 0x17FC3, size: 0x8, addend: 0x0, symName: __ZNSt3__117__compressed_pairIPNS_11__tree_nodeINS_12basic_stringIcNS_11char_traitsIcEENS_9allocatorIcEEEEPvEENS_22__tree_node_destructorINS5_IS9_EEEEE6secondB8ue170006Ev, symObjAddr: 0x6460, symBinAddr: 0x10000957C, symSize: 0x28 }
  - { offsetInCU: 0x17FE9, offset: 0x17FE9, size: 0x8, addend: 0x0, symName: __ZNSt3__122__compressed_pair_elemINS_22__tree_node_destructorINS_9allocatorINS_11__tree_nodeINS_12basic_stringIcNS_11char_traitsIcEENS2_IcEEEEPvEEEEEELi1ELb0EE5__getB8ue170006Ev, symObjAddr: 0x6488, symBinAddr: 0x1000095A4, symSize: 0x14 }
  - { offsetInCU: 0x1800F, offset: 0x1800F, size: 0x8, addend: 0x0, symName: __ZNSt3__16__treeINS_12basic_stringIcNS_11char_traitsIcEENS_9allocatorIcEEEENS_4lessIS6_EENS4_IS6_EEE4sizeB8ue170006Ev, symObjAddr: 0x6718, symBinAddr: 0x100009834, symSize: 0x28 }
  - { offsetInCU: 0x18035, offset: 0x18035, size: 0x8, addend: 0x0, symName: __ZNSt3__116__tree_node_baseIPvE12__set_parentB8ue170006EPS2_, symObjAddr: 0x68F8, symBinAddr: 0x100009A14, symSize: 0x20 }
  - { offsetInCU: 0x1806A, offset: 0x1806A, size: 0x8, addend: 0x0, symName: __ZNSt3__117__compressed_pairImNS_4lessINS_12basic_stringIcNS_11char_traitsIcEENS_9allocatorIcEEEEEEE5firstB8ue170006Ev, symObjAddr: 0x6918, symBinAddr: 0x100009A34, symSize: 0x24 }
  - { offsetInCU: 0x18090, offset: 0x18090, size: 0x8, addend: 0x0, symName: __ZNSt3__117__compressed_pairIPNS_11__tree_nodeINS_12basic_stringIcNS_11char_traitsIcEENS_9allocatorIcEEEEPvEENS_22__tree_node_destructorINS5_IS9_EEEEE5firstB8ue170006Ev, symObjAddr: 0x693C, symBinAddr: 0x100009A58, symSize: 0x24 }
  - { offsetInCU: 0x180B6, offset: 0x180B6, size: 0x8, addend: 0x0, symName: __ZNSt3__122__compressed_pair_elemIPNS_11__tree_nodeINS_12basic_stringIcNS_11char_traitsIcEENS_9allocatorIcEEEEPvEELi0ELb0EE5__getB8ue170006Ev, symObjAddr: 0x6960, symBinAddr: 0x100009A7C, symSize: 0x14 }
  - { offsetInCU: 0x180DC, offset: 0x180DC, size: 0x8, addend: 0x0, symName: __ZNSt3__110unique_ptrINS_11__tree_nodeINS_12basic_stringIcNS_11char_traitsIcEENS_9allocatorIcEEEEPvEENS_22__tree_node_destructorINS5_IS9_EEEEED2B8ue170006Ev, symObjAddr: 0x6974, symBinAddr: 0x100009A90, symSize: 0x30 }
  - { offsetInCU: 0x18106, offset: 0x18106, size: 0x8, addend: 0x0, symName: __ZNSt3__110unique_ptrINS_11__tree_nodeINS_12basic_stringIcNS_11char_traitsIcEENS_9allocatorIcEEEEPvEENS_22__tree_node_destructorINS5_IS9_EEEEE5resetB8ue170006EPS9_, symObjAddr: 0x69A4, symBinAddr: 0x100009AC0, symSize: 0x78 }
  - { offsetInCU: 0x1814A, offset: 0x1814A, size: 0x8, addend: 0x0, symName: __ZNSt3__122__tree_node_destructorINS_9allocatorINS_11__tree_nodeINS_12basic_stringIcNS_11char_traitsIcEENS1_IcEEEEPvEEEEEclB8ue170006EPS9_, symObjAddr: 0x6A1C, symBinAddr: 0x100009B38, symSize: 0xA4 }
  - { offsetInCU: 0x1817F, offset: 0x1817F, size: 0x8, addend: 0x0, symName: __ZNSt3__115__tree_iteratorINS_12basic_stringIcNS_11char_traitsIcEENS_9allocatorIcEEEEPNS_11__tree_nodeIS6_PvEElEC2B8ue170006ESA_, symObjAddr: 0x6AC0, symBinAddr: 0x100009BDC, symSize: 0x20 }
  - { offsetInCU: 0x181B8, offset: 0x181B8, size: 0x8, addend: 0x0, symName: __ZNSt3__14pairINS_15__tree_iteratorINS_12basic_stringIcNS_11char_traitsIcEENS_9allocatorIcEEEEPNS_11__tree_nodeIS7_PvEElEEbEC2B8ue170006ERKSC_RKb, symObjAddr: 0x6AE0, symBinAddr: 0x100009BFC, symSize: 0x38 }
  - { offsetInCU: 0x181FE, offset: 0x181FE, size: 0x8, addend: 0x0, symName: __ZNKSt3__16__treeINS_12basic_stringIcNS_11char_traitsIcEENS_9allocatorIcEEEENS_4lessIS6_EENS4_IS6_EEE5beginB8ue170006Ev, symObjAddr: 0x6BD8, symBinAddr: 0x100009CF4, symSize: 0x34 }
  - { offsetInCU: 0x18224, offset: 0x18224, size: 0x8, addend: 0x0, symName: __ZNKSt3__16__treeINS_12basic_stringIcNS_11char_traitsIcEENS_9allocatorIcEEEENS_4lessIS6_EENS4_IS6_EEE12__begin_nodeB8ue170006Ev, symObjAddr: 0x6C0C, symBinAddr: 0x100009D28, symSize: 0x14 }
  - { offsetInCU: 0x1824A, offset: 0x1824A, size: 0x8, addend: 0x0, symName: __ZNSt3__121__tree_const_iteratorINS_12basic_stringIcNS_11char_traitsIcEENS_9allocatorIcEEEEPNS_11__tree_nodeIS6_PvEElEC1B8ue170006EPNS_15__tree_end_nodeIPNS_16__tree_node_baseIS8_EEEE, symObjAddr: 0x6C20, symBinAddr: 0x100009D3C, symSize: 0x34 }
  - { offsetInCU: 0x18283, offset: 0x18283, size: 0x8, addend: 0x0, symName: __ZNSt3__121__tree_const_iteratorINS_12basic_stringIcNS_11char_traitsIcEENS_9allocatorIcEEEEPNS_11__tree_nodeIS6_PvEElEC2B8ue170006EPNS_15__tree_end_nodeIPNS_16__tree_node_baseIS8_EEEE, symObjAddr: 0x6C54, symBinAddr: 0x100009D70, symSize: 0x20 }
  - { offsetInCU: 0x182BC, offset: 0x182BC, size: 0x8, addend: 0x0, symName: __ZNKSt3__16__treeINS_12basic_stringIcNS_11char_traitsIcEENS_9allocatorIcEEEENS_4lessIS6_EENS4_IS6_EEE3endB8ue170006Ev, symObjAddr: 0x6C74, symBinAddr: 0x100009D90, symSize: 0x34 }
  - { offsetInCU: 0x182E2, offset: 0x182E2, size: 0x8, addend: 0x0, symName: __ZNSt3__15queueINS_12basic_stringIcNS_11char_traitsIcEENS_9allocatorIcEEEENS_5dequeIS6_NS4_IS6_EEEEEC2B8ue170006Ev, symObjAddr: 0x6CA8, symBinAddr: 0x100009DC4, symSize: 0x2C }
  - { offsetInCU: 0x1830C, offset: 0x1830C, size: 0x8, addend: 0x0, symName: __ZNSt3__15dequeINS_12basic_stringIcNS_11char_traitsIcEENS_9allocatorIcEEEENS4_IS6_EEEC1B8ue170006Ev, symObjAddr: 0x6CD4, symBinAddr: 0x100009DF0, symSize: 0x2C }
  - { offsetInCU: 0x18336, offset: 0x18336, size: 0x8, addend: 0x0, symName: __ZNSt3__15dequeINS_12basic_stringIcNS_11char_traitsIcEENS_9allocatorIcEEEENS4_IS6_EEEC2B8ue170006Ev, symObjAddr: 0x6D00, symBinAddr: 0x100009E1C, symSize: 0x84 }
  - { offsetInCU: 0x18360, offset: 0x18360, size: 0x8, addend: 0x0, symName: __ZNSt3__114__split_bufferIPNS_12basic_stringIcNS_11char_traitsIcEENS_9allocatorIcEEEENS4_IS7_EEEC1B8ue170006Ev, symObjAddr: 0x6D84, symBinAddr: 0x100009EA0, symSize: 0x2C }
  - { offsetInCU: 0x1838A, offset: 0x1838A, size: 0x8, addend: 0x0, symName: __ZNSt3__117__compressed_pairImNS_9allocatorINS_12basic_stringIcNS_11char_traitsIcEENS1_IcEEEEEEEC1B8ue170006IiNS_18__default_init_tagEEEOT_OT0_, symObjAddr: 0x6DB0, symBinAddr: 0x100009ECC, symSize: 0x3C }
  - { offsetInCU: 0x183E2, offset: 0x183E2, size: 0x8, addend: 0x0, symName: __ZNSt3__114__split_bufferIPNS_12basic_stringIcNS_11char_traitsIcEENS_9allocatorIcEEEENS4_IS7_EEEC2B8ue170006Ev, symObjAddr: 0x6DEC, symBinAddr: 0x100009F08, symSize: 0x48 }
  - { offsetInCU: 0x18411, offset: 0x18411, size: 0x8, addend: 0x0, symName: __ZNSt3__117__compressed_pairIPPNS_12basic_stringIcNS_11char_traitsIcEENS_9allocatorIcEEEENS4_IS7_EEEC1B8ue170006IDnNS_18__default_init_tagEEEOT_OT0_, symObjAddr: 0x6E34, symBinAddr: 0x100009F50, symSize: 0x3C }
  - { offsetInCU: 0x18469, offset: 0x18469, size: 0x8, addend: 0x0, symName: __ZNSt3__117__compressed_pairIPPNS_12basic_stringIcNS_11char_traitsIcEENS_9allocatorIcEEEENS4_IS7_EEEC2B8ue170006IDnNS_18__default_init_tagEEEOT_OT0_, symObjAddr: 0x6E70, symBinAddr: 0x100009F8C, symSize: 0x40 }
  - { offsetInCU: 0x184C1, offset: 0x184C1, size: 0x8, addend: 0x0, symName: __ZNSt3__122__compressed_pair_elemIPPNS_12basic_stringIcNS_11char_traitsIcEENS_9allocatorIcEEEELi0ELb0EEC2B8ue170006IDnvEEOT_, symObjAddr: 0x6EB0, symBinAddr: 0x100009FCC, symSize: 0x1C }
  - { offsetInCU: 0x18503, offset: 0x18503, size: 0x8, addend: 0x0, symName: __ZNSt3__122__compressed_pair_elemINS_9allocatorIPNS_12basic_stringIcNS_11char_traitsIcEENS1_IcEEEEEELi1ELb1EEC2B8ue170006ENS_18__default_init_tagE, symObjAddr: 0x6ECC, symBinAddr: 0x100009FE8, symSize: 0x2C }
  - { offsetInCU: 0x18537, offset: 0x18537, size: 0x8, addend: 0x0, symName: __ZNSt3__19allocatorIPNS_12basic_stringIcNS_11char_traitsIcEENS0_IcEEEEEC2B8ue170006Ev, symObjAddr: 0x6EF8, symBinAddr: 0x10000A014, symSize: 0x2C }
  - { offsetInCU: 0x18561, offset: 0x18561, size: 0x8, addend: 0x0, symName: __ZNSt3__116__non_trivial_ifILb1ENS_9allocatorIPNS_12basic_stringIcNS_11char_traitsIcEENS1_IcEEEEEEEC2B8ue170006Ev, symObjAddr: 0x6F24, symBinAddr: 0x10000A040, symSize: 0x14 }
  - { offsetInCU: 0x1858B, offset: 0x1858B, size: 0x8, addend: 0x0, symName: __ZNSt3__117__compressed_pairImNS_9allocatorINS_12basic_stringIcNS_11char_traitsIcEENS1_IcEEEEEEEC2B8ue170006IiNS_18__default_init_tagEEEOT_OT0_, symObjAddr: 0x6F38, symBinAddr: 0x10000A054, symSize: 0x40 }
  - { offsetInCU: 0x185E3, offset: 0x185E3, size: 0x8, addend: 0x0, symName: __ZNSt3__122__compressed_pair_elemINS_9allocatorINS_12basic_stringIcNS_11char_traitsIcEENS1_IcEEEEEELi1ELb1EEC2B8ue170006ENS_18__default_init_tagE, symObjAddr: 0x6F78, symBinAddr: 0x10000A094, symSize: 0x2C }
  - { offsetInCU: 0x18617, offset: 0x18617, size: 0x8, addend: 0x0, symName: __ZNSt3__19allocatorINS_12basic_stringIcNS_11char_traitsIcEENS0_IcEEEEEC2B8ue170006Ev, symObjAddr: 0x6FA4, symBinAddr: 0x10000A0C0, symSize: 0x2C }
  - { offsetInCU: 0x18641, offset: 0x18641, size: 0x8, addend: 0x0, symName: __ZNSt3__116__non_trivial_ifILb1ENS_9allocatorINS_12basic_stringIcNS_11char_traitsIcEENS1_IcEEEEEEEC2B8ue170006Ev, symObjAddr: 0x6FD0, symBinAddr: 0x10000A0EC, symSize: 0x14 }
  - { offsetInCU: 0x1866B, offset: 0x1866B, size: 0x8, addend: 0x0, symName: __ZNSt3__15queueI6AlumnoNS_5dequeIS1_NS_9allocatorIS1_EEEEEC2B8ue170006Ev, symObjAddr: 0x6FE4, symBinAddr: 0x10000A100, symSize: 0x2C }
  - { offsetInCU: 0x18695, offset: 0x18695, size: 0x8, addend: 0x0, symName: __ZNSt3__15dequeI6AlumnoNS_9allocatorIS1_EEEC1B8ue170006Ev, symObjAddr: 0x7010, symBinAddr: 0x10000A12C, symSize: 0x2C }
  - { offsetInCU: 0x186BF, offset: 0x186BF, size: 0x8, addend: 0x0, symName: __ZNSt3__15dequeI6AlumnoNS_9allocatorIS1_EEEC2B8ue170006Ev, symObjAddr: 0x703C, symBinAddr: 0x10000A158, symSize: 0x84 }
  - { offsetInCU: 0x186E9, offset: 0x186E9, size: 0x8, addend: 0x0, symName: __ZNSt3__114__split_bufferIP6AlumnoNS_9allocatorIS2_EEEC1B8ue170006Ev, symObjAddr: 0x70C0, symBinAddr: 0x10000A1DC, symSize: 0x2C }
  - { offsetInCU: 0x18713, offset: 0x18713, size: 0x8, addend: 0x0, symName: __ZNSt3__117__compressed_pairImNS_9allocatorI6AlumnoEEEC1B8ue170006IiNS_18__default_init_tagEEEOT_OT0_, symObjAddr: 0x70EC, symBinAddr: 0x10000A208, symSize: 0x3C }
  - { offsetInCU: 0x1876B, offset: 0x1876B, size: 0x8, addend: 0x0, symName: __ZNSt3__114__split_bufferIP6AlumnoNS_9allocatorIS2_EEEC2B8ue170006Ev, symObjAddr: 0x7128, symBinAddr: 0x10000A244, symSize: 0x48 }
  - { offsetInCU: 0x18795, offset: 0x18795, size: 0x8, addend: 0x0, symName: __ZNSt3__117__compressed_pairIPP6AlumnoNS_9allocatorIS2_EEEC1B8ue170006IDnNS_18__default_init_tagEEEOT_OT0_, symObjAddr: 0x7170, symBinAddr: 0x10000A28C, symSize: 0x3C }
  - { offsetInCU: 0x187ED, offset: 0x187ED, size: 0x8, addend: 0x0, symName: __ZNSt3__117__compressed_pairIPP6AlumnoNS_9allocatorIS2_EEEC2B8ue170006IDnNS_18__default_init_tagEEEOT_OT0_, symObjAddr: 0x71AC, symBinAddr: 0x10000A2C8, symSize: 0x40 }
  - { offsetInCU: 0x18845, offset: 0x18845, size: 0x8, addend: 0x0, symName: __ZNSt3__122__compressed_pair_elemIPP6AlumnoLi0ELb0EEC2B8ue170006IDnvEEOT_, symObjAddr: 0x71EC, symBinAddr: 0x10000A308, symSize: 0x1C }
  - { offsetInCU: 0x18887, offset: 0x18887, size: 0x8, addend: 0x0, symName: __ZNSt3__122__compressed_pair_elemINS_9allocatorIP6AlumnoEELi1ELb1EEC2B8ue170006ENS_18__default_init_tagE, symObjAddr: 0x7208, symBinAddr: 0x10000A324, symSize: 0x2C }
  - { offsetInCU: 0x188BB, offset: 0x188BB, size: 0x8, addend: 0x0, symName: __ZNSt3__19allocatorIP6AlumnoEC2B8ue170006Ev, symObjAddr: 0x7234, symBinAddr: 0x10000A350, symSize: 0x2C }
  - { offsetInCU: 0x188E5, offset: 0x188E5, size: 0x8, addend: 0x0, symName: __ZNSt3__116__non_trivial_ifILb1ENS_9allocatorIP6AlumnoEEEC2B8ue170006Ev, symObjAddr: 0x7260, symBinAddr: 0x10000A37C, symSize: 0x14 }
  - { offsetInCU: 0x1890F, offset: 0x1890F, size: 0x8, addend: 0x0, symName: __ZNSt3__117__compressed_pairImNS_9allocatorI6AlumnoEEEC2B8ue170006IiNS_18__default_init_tagEEEOT_OT0_, symObjAddr: 0x7274, symBinAddr: 0x10000A390, symSize: 0x40 }
  - { offsetInCU: 0x18967, offset: 0x18967, size: 0x8, addend: 0x0, symName: __ZNSt3__122__compressed_pair_elemINS_9allocatorI6AlumnoEELi1ELb1EEC2B8ue170006ENS_18__default_init_tagE, symObjAddr: 0x72B4, symBinAddr: 0x10000A3D0, symSize: 0x2C }
  - { offsetInCU: 0x1899B, offset: 0x1899B, size: 0x8, addend: 0x0, symName: __ZNSt3__19allocatorI6AlumnoEC2B8ue170006Ev, symObjAddr: 0x72E0, symBinAddr: 0x10000A3FC, symSize: 0x2C }
  - { offsetInCU: 0x189C5, offset: 0x189C5, size: 0x8, addend: 0x0, symName: __ZNSt3__116__non_trivial_ifILb1ENS_9allocatorI6AlumnoEEEC2B8ue170006Ev, symObjAddr: 0x730C, symBinAddr: 0x10000A428, symSize: 0x14 }
  - { offsetInCU: 0x189EF, offset: 0x189EF, size: 0x8, addend: 0x0, symName: __ZNSt3__111char_traitsIcE6lengthB8ue170006EPKc, symObjAddr: 0x7514, symBinAddr: 0x10000A630, symSize: 0x48 }
  - { offsetInCU: 0x18A30, offset: 0x18A30, size: 0x8, addend: 0x0, symName: __ZNKSt3__113basic_ostreamIcNS_11char_traitsIcEEE6sentrycvbB8ue170006Ev, symObjAddr: 0x755C, symBinAddr: 0x10000A678, symSize: 0x1C }
  - { offsetInCU: 0x18A56, offset: 0x18A56, size: 0x8, addend: 0x0, symName: __ZNSt3__119ostreambuf_iteratorIcNS_11char_traitsIcEEEC1B8ue170006ERNS_13basic_ostreamIcS2_EE, symObjAddr: 0x77C0, symBinAddr: 0x10000A8DC, symSize: 0x34 }
  - { offsetInCU: 0x18A8E, offset: 0x18A8E, size: 0x8, addend: 0x0, symName: __ZNKSt3__18ios_base5flagsB8ue170006Ev, symObjAddr: 0x77F4, symBinAddr: 0x10000A910, symSize: 0x18 }
  - { offsetInCU: 0x18AB6, offset: 0x18AB6, size: 0x8, addend: 0x0, symName: __ZNKSt3__19basic_iosIcNS_11char_traitsIcEEE4fillB8ue170006Ev, symObjAddr: 0x780C, symBinAddr: 0x10000A928, symSize: 0x64 }
  - { offsetInCU: 0x18ADE, offset: 0x18ADE, size: 0x8, addend: 0x0, symName: __ZNKSt3__119ostreambuf_iteratorIcNS_11char_traitsIcEEE6failedB8ue170006Ev, symObjAddr: 0x7870, symBinAddr: 0x10000A98C, symSize: 0x24 }
  - { offsetInCU: 0x18B04, offset: 0x18B04, size: 0x8, addend: 0x0, symName: __ZNSt3__19basic_iosIcNS_11char_traitsIcEEE8setstateB8ue170006Ej, symObjAddr: 0x7894, symBinAddr: 0x10000A9B0, symSize: 0x2C }
  - { offsetInCU: 0x18B39, offset: 0x18B39, size: 0x8, addend: 0x0, symName: __ZNKSt3__18ios_base5widthB8ue170006Ev, symObjAddr: 0x78C0, symBinAddr: 0x10000A9DC, symSize: 0x18 }
  - { offsetInCU: 0x18B61, offset: 0x18B61, size: 0x8, addend: 0x0, symName: __ZNSt3__115basic_streambufIcNS_11char_traitsIcEEE5sputnB8ue170006EPKcl, symObjAddr: 0x78D8, symBinAddr: 0x10000A9F4, symSize: 0x3C }
  - { offsetInCU: 0x18BA3, offset: 0x18BA3, size: 0x8, addend: 0x0, symName: __ZNSt3__112basic_stringIcNS_11char_traitsIcEENS_9allocatorIcEEEC1B8ue170006Emc, symObjAddr: 0x7914, symBinAddr: 0x10000AA30, symSize: 0x3C }
  - { offsetInCU: 0x18BEB, offset: 0x18BEB, size: 0x8, addend: 0x0, symName: __ZNSt3__18ios_base5widthB8ue170006El, symObjAddr: 0x7950, symBinAddr: 0x10000AA6C, symSize: 0x2C }
  - { offsetInCU: 0x18C31, offset: 0x18C31, size: 0x8, addend: 0x0, symName: __ZNSt3__112basic_stringIcNS_11char_traitsIcEENS_9allocatorIcEEEC2B8ue170006Emc, symObjAddr: 0x797C, symBinAddr: 0x10000AA98, symSize: 0x4C }
  - { offsetInCU: 0x18C79, offset: 0x18C79, size: 0x8, addend: 0x0, symName: __ZNSt3__117__compressed_pairINS_12basic_stringIcNS_11char_traitsIcEENS_9allocatorIcEEE5__repES5_EC1B8ue170006INS_18__default_init_tagESA_EEOT_OT0_, symObjAddr: 0x79C8, symBinAddr: 0x10000AAE4, symSize: 0x3C }
  - { offsetInCU: 0x18CD1, offset: 0x18CD1, size: 0x8, addend: 0x0, symName: __ZNSt3__117__compressed_pairINS_12basic_stringIcNS_11char_traitsIcEENS_9allocatorIcEEE5__repES5_EC2B8ue170006INS_18__default_init_tagESA_EEOT_OT0_, symObjAddr: 0x7A04, symBinAddr: 0x10000AB20, symSize: 0x3C }
  - { offsetInCU: 0x18D29, offset: 0x18D29, size: 0x8, addend: 0x0, symName: __ZNSt3__122__compressed_pair_elemINS_12basic_stringIcNS_11char_traitsIcEENS_9allocatorIcEEE5__repELi0ELb0EEC2B8ue170006ENS_18__default_init_tagE, symObjAddr: 0x7A40, symBinAddr: 0x10000AB5C, symSize: 0x14 }
  - { offsetInCU: 0x18D5D, offset: 0x18D5D, size: 0x8, addend: 0x0, symName: __ZNSt3__122__compressed_pair_elemINS_9allocatorIcEELi1ELb1EEC2B8ue170006ENS_18__default_init_tagE, symObjAddr: 0x7A54, symBinAddr: 0x10000AB70, symSize: 0x2C }
  - { offsetInCU: 0x18D91, offset: 0x18D91, size: 0x8, addend: 0x0, symName: __ZNSt3__19allocatorIcEC2B8ue170006Ev, symObjAddr: 0x7A80, symBinAddr: 0x10000AB9C, symSize: 0x2C }
  - { offsetInCU: 0x18DBB, offset: 0x18DBB, size: 0x8, addend: 0x0, symName: __ZNSt3__116__non_trivial_ifILb1ENS_9allocatorIcEEEC2B8ue170006Ev, symObjAddr: 0x7AAC, symBinAddr: 0x10000ABC8, symSize: 0x14 }
  - { offsetInCU: 0x18DE5, offset: 0x18DE5, size: 0x8, addend: 0x0, symName: __ZNSt3__119ostreambuf_iteratorIcNS_11char_traitsIcEEEC2B8ue170006ERNS_13basic_ostreamIcS2_EE, symObjAddr: 0x7AC0, symBinAddr: 0x10000ABDC, symSize: 0x68 }
  - { offsetInCU: 0x18E1D, offset: 0x18E1D, size: 0x8, addend: 0x0, symName: __ZNKSt3__19basic_iosIcNS_11char_traitsIcEEE5rdbufB8ue170006Ev, symObjAddr: 0x7B28, symBinAddr: 0x10000AC44, symSize: 0x24 }
  - { offsetInCU: 0x18E45, offset: 0x18E45, size: 0x8, addend: 0x0, symName: __ZNKSt3__18ios_base5rdbufB8ue170006Ev, symObjAddr: 0x7B4C, symBinAddr: 0x10000AC68, symSize: 0x18 }
  - { offsetInCU: 0x18E6B, offset: 0x18E6B, size: 0x8, addend: 0x0, symName: __ZNSt3__111char_traitsIcE11eq_int_typeB8ue170006Eii, symObjAddr: 0x7B64, symBinAddr: 0x10000AC80, symSize: 0x28 }
  - { offsetInCU: 0x18E9E, offset: 0x18E9E, size: 0x8, addend: 0x0, symName: __ZNKSt3__19basic_iosIcNS_11char_traitsIcEEE5widenB8ue170006Ec, symObjAddr: 0x7B8C, symBinAddr: 0x10000ACA8, symSize: 0x8C }
  - { offsetInCU: 0x18EFD, offset: 0x18EFD, size: 0x8, addend: 0x0, symName: __ZNKSt3__15ctypeIcE5widenB8ue170006Ec, symObjAddr: 0x7C44, symBinAddr: 0x10000AD60, symSize: 0x38 }
  - { offsetInCU: 0x18F32, offset: 0x18F32, size: 0x8, addend: 0x0, symName: __ZNSt3__18ios_base8setstateB8ue170006Ej, symObjAddr: 0x7C7C, symBinAddr: 0x10000AD98, symSize: 0x34 }
  - { offsetInCU: 0x18F69, offset: 0x18F69, size: 0x8, addend: 0x0, symName: __ZNSt3__112basic_stringIcNS_11char_traitsIcEENS_9allocatorIcEEEC2B8ue170006Ev, symObjAddr: 0x7CD4, symBinAddr: 0x10000ADF0, symSize: 0x3C }
  - { offsetInCU: 0x18F93, offset: 0x18F93, size: 0x8, addend: 0x0, symName: __ZNSt3__112basic_stringIcNS_11char_traitsIcEENS_9allocatorIcEEE14__default_initB8ue170006Ev, symObjAddr: 0x7D10, symBinAddr: 0x10000AE2C, symSize: 0xB0 }
  - { offsetInCU: 0x18FE5, offset: 0x18FE5, size: 0x8, addend: 0x0, symName: __ZNSt3__117__compressed_pairINS_12basic_stringIcNS_11char_traitsIcEENS_9allocatorIcEEE5__repES5_E5firstB8ue170006Ev, symObjAddr: 0x7DC0, symBinAddr: 0x10000AEDC, symSize: 0x24 }
  - { offsetInCU: 0x1900B, offset: 0x1900B, size: 0x8, addend: 0x0, symName: __ZNSt3__112basic_stringIcNS_11char_traitsIcEENS_9allocatorIcEEE11__recommendB8ue170006Em, symObjAddr: 0x7DE4, symBinAddr: 0x10000AF00, symSize: 0x9C }
  - { offsetInCU: 0x1903E, offset: 0x1903E, size: 0x8, addend: 0x0, symName: __ZNSt3__116allocator_traitsINS_9allocatorIcEEE8allocateB8ue170006ERS2_m, symObjAddr: 0x7E80, symBinAddr: 0x10000AF9C, symSize: 0x2C }
  - { offsetInCU: 0x19071, offset: 0x19071, size: 0x8, addend: 0x0, symName: __ZNSt3__112basic_stringIcNS_11char_traitsIcEENS_9allocatorIcEEE7__allocB8ue170006Ev, symObjAddr: 0x7EAC, symBinAddr: 0x10000AFC8, symSize: 0x24 }
  - { offsetInCU: 0x19097, offset: 0x19097, size: 0x8, addend: 0x0, symName: __ZNSt3__112basic_stringIcNS_11char_traitsIcEENS_9allocatorIcEEE16__begin_lifetimeB8ue170006EPcm, symObjAddr: 0x7ED0, symBinAddr: 0x10000AFEC, symSize: 0x14 }
  - { offsetInCU: 0x190CA, offset: 0x190CA, size: 0x8, addend: 0x0, symName: __ZNSt3__112basic_stringIcNS_11char_traitsIcEENS_9allocatorIcEEE18__set_long_pointerB8ue170006EPc, symObjAddr: 0x7EE4, symBinAddr: 0x10000B000, symSize: 0x38 }
  - { offsetInCU: 0x190FF, offset: 0x190FF, size: 0x8, addend: 0x0, symName: __ZNSt3__112basic_stringIcNS_11char_traitsIcEENS_9allocatorIcEEE14__set_long_capB8ue170006Em, symObjAddr: 0x7F1C, symBinAddr: 0x10000B038, symSize: 0x70 }
  - { offsetInCU: 0x19134, offset: 0x19134, size: 0x8, addend: 0x0, symName: __ZNSt3__112basic_stringIcNS_11char_traitsIcEENS_9allocatorIcEEE15__set_long_sizeB8ue170006Em, symObjAddr: 0x7F8C, symBinAddr: 0x10000B0A8, symSize: 0x38 }
  - { offsetInCU: 0x19169, offset: 0x19169, size: 0x8, addend: 0x0, symName: __ZNSt3__122__compressed_pair_elemINS_12basic_stringIcNS_11char_traitsIcEENS_9allocatorIcEEE5__repELi0ELb0EE5__getB8ue170006Ev, symObjAddr: 0x7FC4, symBinAddr: 0x10000B0E0, symSize: 0x14 }
  - { offsetInCU: 0x1918F, offset: 0x1918F, size: 0x8, addend: 0x0, symName: __ZNSt3__112basic_stringIcNS_11char_traitsIcEENS_9allocatorIcEEE10__align_itB8ue170006ILm16EEEmm, symObjAddr: 0x7FD8, symBinAddr: 0x10000B0F4, symSize: 0x1C }
  - { offsetInCU: 0x191BD, offset: 0x191BD, size: 0x8, addend: 0x0, symName: __ZNSt3__19allocatorIcE8allocateB8ue170006Em, symObjAddr: 0x7FF4, symBinAddr: 0x10000B110, symSize: 0x84 }
  - { offsetInCU: 0x191FB, offset: 0x191FB, size: 0x8, addend: 0x0, symName: __ZNSt3__116allocator_traitsINS_9allocatorIcEEE8max_sizeB8ue170006IS2_vEEmRKS2_, symObjAddr: 0x8078, symBinAddr: 0x10000B194, symSize: 0x24 }
  - { offsetInCU: 0x19229, offset: 0x19229, size: 0x8, addend: 0x0, symName: __ZNKSt3__19allocatorIcE8max_sizeB8ue170006Ev, symObjAddr: 0x809C, symBinAddr: 0x10000B1B8, symSize: 0x14 }
  - { offsetInCU: 0x1924F, offset: 0x1924F, size: 0x8, addend: 0x0, symName: __ZNSt3__117__compressed_pairINS_12basic_stringIcNS_11char_traitsIcEENS_9allocatorIcEEE5__repES5_E6secondB8ue170006Ev, symObjAddr: 0x80B0, symBinAddr: 0x10000B1CC, symSize: 0x24 }
  - { offsetInCU: 0x19275, offset: 0x19275, size: 0x8, addend: 0x0, symName: __ZNSt3__122__compressed_pair_elemINS_9allocatorIcEELi1ELb1EE5__getB8ue170006Ev, symObjAddr: 0x80D4, symBinAddr: 0x10000B1F0, symSize: 0x14 }
  - { offsetInCU: 0x1929B, offset: 0x1929B, size: 0x8, addend: 0x0, symName: __ZNSt3__15queueINS_12basic_stringIcNS_11char_traitsIcEENS_9allocatorIcEEEENS_5dequeIS6_NS4_IS6_EEEEEC2B8ue170006ERKSA_, symObjAddr: 0x80E8, symBinAddr: 0x10000B204, symSize: 0x34 }
  - { offsetInCU: 0x192D4, offset: 0x192D4, size: 0x8, addend: 0x0, symName: __ZNSt3__15dequeINS_12basic_stringIcNS_11char_traitsIcEENS_9allocatorIcEEEENS4_IS6_EEEC1ERKS8_, symObjAddr: 0x811C, symBinAddr: 0x10000B238, symSize: 0x34 }
  - { offsetInCU: 0x1930F, offset: 0x1930F, size: 0x8, addend: 0x0, symName: __ZNSt3__15dequeINS_12basic_stringIcNS_11char_traitsIcEENS_9allocatorIcEEEENS4_IS6_EEEC2ERKS8_, symObjAddr: 0x8150, symBinAddr: 0x10000B26C, symSize: 0x100 }
  - { offsetInCU: 0x19354, offset: 0x19354, size: 0x8, addend: 0x0, symName: __ZNSt3__116allocator_traitsINS_9allocatorINS_12basic_stringIcNS_11char_traitsIcEENS1_IcEEEEEEE37select_on_container_copy_constructionB8ue170006IS7_vvEES7_RKS7_, symObjAddr: 0x8250, symBinAddr: 0x10000B36C, symSize: 0x10 }
  - { offsetInCU: 0x19383, offset: 0x19383, size: 0x8, addend: 0x0, symName: __ZNKSt3__15dequeINS_12basic_stringIcNS_11char_traitsIcEENS_9allocatorIcEEEENS4_IS6_EEE7__allocB8ue170006Ev, symObjAddr: 0x8260, symBinAddr: 0x10000B37C, symSize: 0x28 }
  - { offsetInCU: 0x193A9, offset: 0x193A9, size: 0x8, addend: 0x0, symName: __ZNSt3__19allocatorIPNS_12basic_stringIcNS_11char_traitsIcEENS0_IcEEEEEC1B8ue170006IS5_EERKNS0_IT_EE, symObjAddr: 0x8288, symBinAddr: 0x10000B3A4, symSize: 0x34 }
  - { offsetInCU: 0x193E6, offset: 0x193E6, size: 0x8, addend: 0x0, symName: __ZNSt3__114__split_bufferIPNS_12basic_stringIcNS_11char_traitsIcEENS_9allocatorIcEEEENS4_IS7_EEEC1B8ue170006ERKS8_, symObjAddr: 0x82BC, symBinAddr: 0x10000B3D8, symSize: 0x34 }
  - { offsetInCU: 0x1941E, offset: 0x1941E, size: 0x8, addend: 0x0, symName: __ZNSt3__117__compressed_pairImNS_9allocatorINS_12basic_stringIcNS_11char_traitsIcEENS1_IcEEEEEEEC1B8ue170006IiRNS1_IPS6_EEEEOT_OT0_, symObjAddr: 0x82F0, symBinAddr: 0x10000B40C, symSize: 0x3C }
  - { offsetInCU: 0x1947B, offset: 0x1947B, size: 0x8, addend: 0x0, symName: __ZNSt3__15dequeINS_12basic_stringIcNS_11char_traitsIcEENS_9allocatorIcEEEENS4_IS6_EEE8__appendINS_16__deque_iteratorIS6_PKS6_RSB_PKSC_lLl170EEEEEvT_SH_PNS_9enable_ifIXsr31__has_forward_iterator_categoryISH_EE5valueEvE4typeE, symObjAddr: 0x832C, symBinAddr: 0x10000B448, symSize: 0x78 }
  - { offsetInCU: 0x194D6, offset: 0x194D6, size: 0x8, addend: 0x0, symName: __ZNKSt3__15dequeINS_12basic_stringIcNS_11char_traitsIcEENS_9allocatorIcEEEENS4_IS6_EEE5beginB8ue170006Ev, symObjAddr: 0x83A4, symBinAddr: 0x10000B4C0, symSize: 0xB0 }
  - { offsetInCU: 0x1950B, offset: 0x1950B, size: 0x8, addend: 0x0, symName: __ZNKSt3__15dequeINS_12basic_stringIcNS_11char_traitsIcEENS_9allocatorIcEEEENS4_IS6_EEE3endB8ue170006Ev, symObjAddr: 0x8454, symBinAddr: 0x10000B570, symSize: 0xC4 }
  - { offsetInCU: 0x1954F, offset: 0x1954F, size: 0x8, addend: 0x0, symName: __ZNKSt3__117__compressed_pairImNS_9allocatorINS_12basic_stringIcNS_11char_traitsIcEENS1_IcEEEEEEE6secondB8ue170006Ev, symObjAddr: 0x8518, symBinAddr: 0x10000B634, symSize: 0x24 }
  - { offsetInCU: 0x19575, offset: 0x19575, size: 0x8, addend: 0x0, symName: __ZNKSt3__122__compressed_pair_elemINS_9allocatorINS_12basic_stringIcNS_11char_traitsIcEENS1_IcEEEEEELi1ELb1EE5__getB8ue170006Ev, symObjAddr: 0x853C, symBinAddr: 0x10000B658, symSize: 0x14 }
  - { offsetInCU: 0x1959B, offset: 0x1959B, size: 0x8, addend: 0x0, symName: __ZNSt3__19allocatorIPNS_12basic_stringIcNS_11char_traitsIcEENS0_IcEEEEEC2B8ue170006IS5_EERKNS0_IT_EE, symObjAddr: 0x8550, symBinAddr: 0x10000B66C, symSize: 0x30 }
  - { offsetInCU: 0x195D8, offset: 0x195D8, size: 0x8, addend: 0x0, symName: __ZNSt3__114__split_bufferIPNS_12basic_stringIcNS_11char_traitsIcEENS_9allocatorIcEEEENS4_IS7_EEEC2B8ue170006ERKS8_, symObjAddr: 0x8580, symBinAddr: 0x10000B69C, symSize: 0x4C }
  - { offsetInCU: 0x19610, offset: 0x19610, size: 0x8, addend: 0x0, symName: __ZNSt3__117__compressed_pairIPPNS_12basic_stringIcNS_11char_traitsIcEENS_9allocatorIcEEEENS4_IS7_EEEC1B8ue170006IDnRKS9_EEOT_OT0_, symObjAddr: 0x85CC, symBinAddr: 0x10000B6E8, symSize: 0x3C }
  - { offsetInCU: 0x19668, offset: 0x19668, size: 0x8, addend: 0x0, symName: __ZNSt3__117__compressed_pairIPPNS_12basic_stringIcNS_11char_traitsIcEENS_9allocatorIcEEEENS4_IS7_EEEC2B8ue170006IDnRKS9_EEOT_OT0_, symObjAddr: 0x8608, symBinAddr: 0x10000B724, symSize: 0x44 }
  - { offsetInCU: 0x196C0, offset: 0x196C0, size: 0x8, addend: 0x0, symName: __ZNSt3__122__compressed_pair_elemINS_9allocatorIPNS_12basic_stringIcNS_11char_traitsIcEENS1_IcEEEEEELi1ELb1EEC2B8ue170006IRKS8_vEEOT_, symObjAddr: 0x864C, symBinAddr: 0x10000B768, symSize: 0x18 }
  - { offsetInCU: 0x19702, offset: 0x19702, size: 0x8, addend: 0x0, symName: __ZNSt3__117__compressed_pairImNS_9allocatorINS_12basic_stringIcNS_11char_traitsIcEENS1_IcEEEEEEEC2B8ue170006IiRNS1_IPS6_EEEEOT_OT0_, symObjAddr: 0x8664, symBinAddr: 0x10000B780, symSize: 0x44 }
  - { offsetInCU: 0x1975A, offset: 0x1975A, size: 0x8, addend: 0x0, symName: __ZNSt3__122__compressed_pair_elemINS_9allocatorINS_12basic_stringIcNS_11char_traitsIcEENS1_IcEEEEEELi1ELb1EEC2B8ue170006IRNS1_IPS6_EEvEEOT_, symObjAddr: 0x86A8, symBinAddr: 0x10000B7C4, symSize: 0x34 }
  - { offsetInCU: 0x1979C, offset: 0x1979C, size: 0x8, addend: 0x0, symName: __ZNSt3__19allocatorINS_12basic_stringIcNS_11char_traitsIcEENS0_IcEEEEEC2B8ue170006IPS5_EERKNS0_IT_EE, symObjAddr: 0x86DC, symBinAddr: 0x10000B7F8, symSize: 0x30 }
  - { offsetInCU: 0x197D9, offset: 0x197D9, size: 0x8, addend: 0x0, symName: __ZNSt3__15dequeINS_12basic_stringIcNS_11char_traitsIcEENS_9allocatorIcEEEENS4_IS6_EEE18__append_with_sizeB8ue170006INS_16__deque_iteratorIS6_PKS6_RSB_PKSC_lLl170EEEEEvT_m, symObjAddr: 0x870C, symBinAddr: 0x10000B828, symSize: 0x224 }
  - { offsetInCU: 0x198AA, offset: 0x198AA, size: 0x8, addend: 0x0, symName: __ZNKSt3__15dequeINS_12basic_stringIcNS_11char_traitsIcEENS_9allocatorIcEEEENS4_IS6_EEE12__back_spareB8ue170006Ev, symObjAddr: 0x897C, symBinAddr: 0x10000BA98, symSize: 0x54 }
  - { offsetInCU: 0x198D0, offset: 0x198D0, size: 0x8, addend: 0x0, symName: __ZNSt3__15dequeINS_12basic_stringIcNS_11char_traitsIcEENS_9allocatorIcEEEENS4_IS6_EEE19__add_back_capacityEm, symObjAddr: 0x89D0, symBinAddr: 0x10000BAEC, symSize: 0x64C }
  - { offsetInCU: 0x199D1, offset: 0x199D1, size: 0x8, addend: 0x0, symName: __ZNKSt3__15dequeINS_12basic_stringIcNS_11char_traitsIcEENS_9allocatorIcEEEENS4_IS6_EEE24__annotate_increase_backB8ue170006Em, symObjAddr: 0x901C, symBinAddr: 0x10000C138, symSize: 0x7C }
  - { offsetInCU: 0x19A06, offset: 0x19A06, size: 0x8, addend: 0x0, symName: __ZNKSt3__116__deque_iteratorINS_12basic_stringIcNS_11char_traitsIcEENS_9allocatorIcEEEEPS6_RS6_PS7_lLl170EEplB8ue170006El, symObjAddr: 0x9098, symBinAddr: 0x10000C1B4, symSize: 0x40 }
  - { offsetInCU: 0x19A6D, offset: 0x19A6D, size: 0x8, addend: 0x0, symName: __ZNSt3__15dequeINS_12basic_stringIcNS_11char_traitsIcEENS_9allocatorIcEEEENS4_IS6_EEE13__deque_rangeC1B8ue170006ENS_16__deque_iteratorIS6_PS6_RS6_PSB_lLl170EEESE_, symObjAddr: 0x90D8, symBinAddr: 0x10000C1F4, symSize: 0x4C }
  - { offsetInCU: 0x19AB5, offset: 0x19AB5, size: 0x8, addend: 0x0, symName: __ZNKSt3__15dequeINS_12basic_stringIcNS_11char_traitsIcEENS_9allocatorIcEEEENS4_IS6_EEE13__deque_range5beginB8ue170006Ev, symObjAddr: 0x9124, symBinAddr: 0x10000C240, symSize: 0x24 }
  - { offsetInCU: 0x19ADB, offset: 0x19ADB, size: 0x8, addend: 0x0, symName: __ZNKSt3__15dequeINS_12basic_stringIcNS_11char_traitsIcEENS_9allocatorIcEEEENS4_IS6_EEE13__deque_range3endB8ue170006Ev, symObjAddr: 0x9148, symBinAddr: 0x10000C264, symSize: 0x50 }
  - { offsetInCU: 0x19B01, offset: 0x19B01, size: 0x8, addend: 0x0, symName: __ZNKSt3__15dequeINS_12basic_stringIcNS_11char_traitsIcEENS_9allocatorIcEEEENS4_IS6_EEE13__deque_rangedeB8ue170006Ev, symObjAddr: 0x91CC, symBinAddr: 0x10000C2E8, symSize: 0x7C }
  - { offsetInCU: 0x19B3B, offset: 0x19B3B, size: 0x8, addend: 0x0, symName: __ZNSt3__15dequeINS_12basic_stringIcNS_11char_traitsIcEENS_9allocatorIcEEEENS4_IS6_EEE21_ConstructTransactionC1B8ue170006EPS8_RNS8_19__deque_block_rangeE, symObjAddr: 0x9248, symBinAddr: 0x10000C364, symSize: 0x3C }
  - { offsetInCU: 0x19B83, offset: 0x19B83, size: 0x8, addend: 0x0, symName: __ZNSt3__116allocator_traitsINS_9allocatorINS_12basic_stringIcNS_11char_traitsIcEENS1_IcEEEEEEE9constructB8ue170006IS6_JRKS6_EvEEvRS7_PT_DpOT0_, symObjAddr: 0x9284, symBinAddr: 0x10000C3A0, symSize: 0x34 }
  - { offsetInCU: 0x19BDA, offset: 0x19BDA, size: 0x8, addend: 0x0, symName: __ZNKSt3__116__deque_iteratorINS_12basic_stringIcNS_11char_traitsIcEENS_9allocatorIcEEEEPKS6_RS7_PKS8_lLl170EEdeB8ue170006Ev, symObjAddr: 0x92B8, symBinAddr: 0x10000C3D4, symSize: 0x18 }
  - { offsetInCU: 0x19C00, offset: 0x19C00, size: 0x8, addend: 0x0, symName: __ZNSt3__116__deque_iteratorINS_12basic_stringIcNS_11char_traitsIcEENS_9allocatorIcEEEEPKS6_RS7_PKS8_lLl170EEppB8ue170006Ev, symObjAddr: 0x92D0, symBinAddr: 0x10000C3EC, symSize: 0x70 }
  - { offsetInCU: 0x19C26, offset: 0x19C26, size: 0x8, addend: 0x0, symName: __ZNSt3__15dequeINS_12basic_stringIcNS_11char_traitsIcEENS_9allocatorIcEEEENS4_IS6_EEE21_ConstructTransactionD1B8ue170006Ev, symObjAddr: 0x9340, symBinAddr: 0x10000C45C, symSize: 0x2C }
  - { offsetInCU: 0x19C50, offset: 0x19C50, size: 0x8, addend: 0x0, symName: __ZNSt3__15dequeINS_12basic_stringIcNS_11char_traitsIcEENS_9allocatorIcEEEENS4_IS6_EEE13__deque_rangeppB8ue170006Ev, symObjAddr: 0x936C, symBinAddr: 0x10000C488, symSize: 0x64 }
  - { offsetInCU: 0x19C76, offset: 0x19C76, size: 0x8, addend: 0x0, symName: __ZNKSt3__15dequeINS_12basic_stringIcNS_11char_traitsIcEENS_9allocatorIcEEEENS4_IS6_EEE10__capacityB8ue170006Ev, symObjAddr: 0x93D0, symBinAddr: 0x10000C4EC, symSize: 0x64 }
  - { offsetInCU: 0x19C9C, offset: 0x19C9C, size: 0x8, addend: 0x0, symName: __ZNSt3__15dequeINS_12basic_stringIcNS_11char_traitsIcEENS_9allocatorIcEEEENS4_IS6_EEE18__recommend_blocksB8ue170006Em, symObjAddr: 0x9434, symBinAddr: 0x10000C550, symSize: 0x40 }
  - { offsetInCU: 0x19CC0, offset: 0x19CC0, size: 0x8, addend: 0x0, symName: __ZNKSt3__15dequeINS_12basic_stringIcNS_11char_traitsIcEENS_9allocatorIcEEEENS4_IS6_EEE13__front_spareB8ue170006Ev, symObjAddr: 0x9474, symBinAddr: 0x10000C590, symSize: 0x18 }
  - { offsetInCU: 0x19CE6, offset: 0x19CE6, size: 0x8, addend: 0x0, symName: __ZNSt3__114__split_bufferIPNS_12basic_stringIcNS_11char_traitsIcEENS_9allocatorIcEEEENS4_IS7_EEE9push_backB8ue170006ERKS7_, symObjAddr: 0x948C, symBinAddr: 0x10000C5A8, symSize: 0x270 }
  - { offsetInCU: 0x19D5E, offset: 0x19D5E, size: 0x8, addend: 0x0, symName: __ZNKSt3__114__split_bufferIPNS_12basic_stringIcNS_11char_traitsIcEENS_9allocatorIcEEEENS4_IS7_EEE12__back_spareB8ue170006Ev, symObjAddr: 0x96FC, symBinAddr: 0x10000C818, symSize: 0x40 }
  - { offsetInCU: 0x19D84, offset: 0x19D84, size: 0x8, addend: 0x0, symName: __ZNSt3__114__split_bufferIPNS_12basic_stringIcNS_11char_traitsIcEENS_9allocatorIcEEEENS4_IS7_EEE9push_backEOS7_, symObjAddr: 0x973C, symBinAddr: 0x10000C858, symSize: 0x270 }
  - { offsetInCU: 0x19DFC, offset: 0x19DFC, size: 0x8, addend: 0x0, symName: __ZNSt3__116allocator_traitsINS_9allocatorINS_12basic_stringIcNS_11char_traitsIcEENS1_IcEEEEEEE8allocateB8ue170006ERS7_m, symObjAddr: 0x99AC, symBinAddr: 0x10000CAC8, symSize: 0x2C }
  - { offsetInCU: 0x19E2F, offset: 0x19E2F, size: 0x8, addend: 0x0, symName: __ZNSt3__114__split_bufferIPNS_12basic_stringIcNS_11char_traitsIcEENS_9allocatorIcEEEENS4_IS7_EEE10push_frontEOS7_, symObjAddr: 0x99D8, symBinAddr: 0x10000CAF4, symSize: 0x26C }
  - { offsetInCU: 0x19EA7, offset: 0x19EA7, size: 0x8, addend: 0x0, symName: __ZNSt3__114__split_bufferIPNS_12basic_stringIcNS_11char_traitsIcEENS_9allocatorIcEEEERNS4_IS7_EEEC1EmmS9_, symObjAddr: 0x9C70, symBinAddr: 0x10000CD8C, symSize: 0x44 }
  - { offsetInCU: 0x19EFD, offset: 0x19EFD, size: 0x8, addend: 0x0, symName: __ZNSt3__114__split_bufferIPNS_12basic_stringIcNS_11char_traitsIcEENS_9allocatorIcEEEERNS4_IS7_EEE9push_backEOS7_, symObjAddr: 0x9CB4, symBinAddr: 0x10000CDD0, symSize: 0x270 }
  - { offsetInCU: 0x19F75, offset: 0x19F75, size: 0x8, addend: 0x0, symName: __ZNSt3__114__split_bufferIPNS_12basic_stringIcNS_11char_traitsIcEENS_9allocatorIcEEEERNS4_IS7_EEE4backB8ue170006Ev, symObjAddr: 0x9F24, symBinAddr: 0x10000D040, symSize: 0x1C }
  - { offsetInCU: 0x19F9B, offset: 0x19F9B, size: 0x8, addend: 0x0, symName: __ZNSt3__114__split_bufferIPNS_12basic_stringIcNS_11char_traitsIcEENS_9allocatorIcEEEERNS4_IS7_EEE5beginB8ue170006Ev, symObjAddr: 0x9F40, symBinAddr: 0x10000D05C, symSize: 0x18 }
  - { offsetInCU: 0x19FC1, offset: 0x19FC1, size: 0x8, addend: 0x0, symName: __ZNSt3__114__split_bufferIPNS_12basic_stringIcNS_11char_traitsIcEENS_9allocatorIcEEEERNS4_IS7_EEE3endB8ue170006Ev, symObjAddr: 0x9F58, symBinAddr: 0x10000D074, symSize: 0x18 }
  - { offsetInCU: 0x19FE7, offset: 0x19FE7, size: 0x8, addend: 0x0, symName: __ZNSt3__114__split_bufferIPNS_12basic_stringIcNS_11char_traitsIcEENS_9allocatorIcEEEERNS4_IS7_EEE9push_backB8ue170006ERKS7_, symObjAddr: 0x9F70, symBinAddr: 0x10000D08C, symSize: 0x270 }
  - { offsetInCU: 0x1A05F, offset: 0x1A05F, size: 0x8, addend: 0x0, symName: __ZNSt3__114__split_bufferIPNS_12basic_stringIcNS_11char_traitsIcEENS_9allocatorIcEEEERNS4_IS7_EEE10push_frontERKS7_, symObjAddr: 0xA1E0, symBinAddr: 0x10000D2FC, symSize: 0x26C }
  - { offsetInCU: 0x1A0D7, offset: 0x1A0D7, size: 0x8, addend: 0x0, symName: __ZNSt3__114__split_bufferIPNS_12basic_stringIcNS_11char_traitsIcEENS_9allocatorIcEEEENS4_IS7_EEE9__end_capB8ue170006Ev, symObjAddr: 0xA488, symBinAddr: 0x10000D5A4, symSize: 0x28 }
  - { offsetInCU: 0x1A0FD, offset: 0x1A0FD, size: 0x8, addend: 0x0, symName: __ZNSt3__114__split_bufferIPNS_12basic_stringIcNS_11char_traitsIcEENS_9allocatorIcEEEERNS4_IS7_EEE9__end_capB8ue170006Ev, symObjAddr: 0xA4B0, symBinAddr: 0x10000D5CC, symSize: 0x28 }
  - { offsetInCU: 0x1A123, offset: 0x1A123, size: 0x8, addend: 0x0, symName: __ZNSt3__114__split_bufferIPNS_12basic_stringIcNS_11char_traitsIcEENS_9allocatorIcEEEERNS4_IS7_EEED1Ev, symObjAddr: 0xA4D8, symBinAddr: 0x10000D5F4, symSize: 0x2C }
  - { offsetInCU: 0x1A14F, offset: 0x1A14F, size: 0x8, addend: 0x0, symName: __ZNSt3__114__split_bufferIPNS_12basic_stringIcNS_11char_traitsIcEENS_9allocatorIcEEEERNS4_IS7_EEE18__construct_at_endINS_13move_iteratorIPS7_EEEENS_9enable_ifIXsr31__has_forward_iterator_categoryIT_EE5valueEvE4typeESG_SG_, symObjAddr: 0xA544, symBinAddr: 0x10000D660, symSize: 0x60 }
  - { offsetInCU: 0x1A19C, offset: 0x1A19C, size: 0x8, addend: 0x0, symName: __ZNSt3__113move_iteratorIPPNS_12basic_stringIcNS_11char_traitsIcEENS_9allocatorIcEEEEEC1B8ue170006ES8_, symObjAddr: 0xA5A4, symBinAddr: 0x10000D6C0, symSize: 0x34 }
  - { offsetInCU: 0x1A1D9, offset: 0x1A1D9, size: 0x8, addend: 0x0, symName: __ZNSt3__116allocator_traitsINS_9allocatorIPNS_12basic_stringIcNS_11char_traitsIcEENS1_IcEEEEEEE9constructB8ue170006IS7_JRKS7_EvEEvRS8_PT_DpOT0_, symObjAddr: 0xA5D8, symBinAddr: 0x10000D6F4, symSize: 0x34 }
  - { offsetInCU: 0x1A253, offset: 0x1A253, size: 0x8, addend: 0x0, symName: __ZNKSt3__114__move_trivialclB8ue170006IPNS_12basic_stringIcNS_11char_traitsIcEENS_9allocatorIcEEEES8_Li0EEENS_4pairIPT_PT0_EESB_SB_SD_, symObjAddr: 0xA7A8, symBinAddr: 0x10000D8C4, symSize: 0x48 }
  - { offsetInCU: 0x1A2BB, offset: 0x1A2BB, size: 0x8, addend: 0x0, symName: __ZNSt3__14pairIPPNS_12basic_stringIcNS_11char_traitsIcEENS_9allocatorIcEEEES8_EC1B8ue170006ERKS8_SB_, symObjAddr: 0xAA20, symBinAddr: 0x10000DB3C, symSize: 0x3C }
  - { offsetInCU: 0x1A301, offset: 0x1A301, size: 0x8, addend: 0x0, symName: __ZNSt3__14pairIPPNS_12basic_stringIcNS_11char_traitsIcEENS_9allocatorIcEEEES8_EC2B8ue170006ERKS8_SB_, symObjAddr: 0xAA5C, symBinAddr: 0x10000DB78, symSize: 0x34 }
  - { offsetInCU: 0x1A347, offset: 0x1A347, size: 0x8, addend: 0x0, symName: __ZNSt3__118__unwrap_iter_implIPPNS_12basic_stringIcNS_11char_traitsIcEENS_9allocatorIcEEEELb1EE8__unwrapB8ue170006ES8_, symObjAddr: 0xAA90, symBinAddr: 0x10000DBAC, symSize: 0x24 }
  - { offsetInCU: 0x1A36A, offset: 0x1A36A, size: 0x8, addend: 0x0, symName: __ZNSt3__118__unwrap_iter_implIPPNS_12basic_stringIcNS_11char_traitsIcEENS_9allocatorIcEEEELb1EE8__rewrapB8ue170006ES8_S8_, symObjAddr: 0xAAB4, symBinAddr: 0x10000DBD0, symSize: 0x50 }
  - { offsetInCU: 0x1A39B, offset: 0x1A39B, size: 0x8, addend: 0x0, symName: __ZNSt3__114__split_bufferIPNS_12basic_stringIcNS_11char_traitsIcEENS_9allocatorIcEEEERNS4_IS7_EEE28__construct_at_end_with_sizeINS_13move_iteratorIPS7_EEEEvT_m, symObjAddr: 0xAB04, symBinAddr: 0x10000DC20, symSize: 0xE4 }
  - { offsetInCU: 0x1A401, offset: 0x1A401, size: 0x8, addend: 0x0, symName: __ZNSt3__114__split_bufferIPNS_12basic_stringIcNS_11char_traitsIcEENS_9allocatorIcEEEERNS4_IS7_EEE21_ConstructTransactionC1B8ue170006EPPS7_m, symObjAddr: 0xAC24, symBinAddr: 0x10000DD40, symSize: 0x3C }
  - { offsetInCU: 0x1A447, offset: 0x1A447, size: 0x8, addend: 0x0, symName: __ZNSt3__116allocator_traitsINS_9allocatorIPNS_12basic_stringIcNS_11char_traitsIcEENS1_IcEEEEEEE9constructB8ue170006IS7_JS7_EvEEvRS8_PT_DpOT0_, symObjAddr: 0xAC60, symBinAddr: 0x10000DD7C, symSize: 0x34 }
  - { offsetInCU: 0x1A49E, offset: 0x1A49E, size: 0x8, addend: 0x0, symName: __ZNSt3__114__split_bufferIPNS_12basic_stringIcNS_11char_traitsIcEENS_9allocatorIcEEEERNS4_IS7_EEE7__allocB8ue170006Ev, symObjAddr: 0xAC94, symBinAddr: 0x10000DDB0, symSize: 0x28 }
  - { offsetInCU: 0x1A4C4, offset: 0x1A4C4, size: 0x8, addend: 0x0, symName: __ZNKSt3__113move_iteratorIPPNS_12basic_stringIcNS_11char_traitsIcEENS_9allocatorIcEEEEEdeB8ue170006Ev, symObjAddr: 0xACBC, symBinAddr: 0x10000DDD8, symSize: 0x18 }
  - { offsetInCU: 0x1A4EA, offset: 0x1A4EA, size: 0x8, addend: 0x0, symName: __ZNSt3__113move_iteratorIPPNS_12basic_stringIcNS_11char_traitsIcEENS_9allocatorIcEEEEEppB8ue170006Ev, symObjAddr: 0xACD4, symBinAddr: 0x10000DDF0, symSize: 0x20 }
  - { offsetInCU: 0x1A510, offset: 0x1A510, size: 0x8, addend: 0x0, symName: __ZNSt3__114__split_bufferIPNS_12basic_stringIcNS_11char_traitsIcEENS_9allocatorIcEEEERNS4_IS7_EEE21_ConstructTransactionD1B8ue170006Ev, symObjAddr: 0xACF4, symBinAddr: 0x10000DE10, symSize: 0x2C }
  - { offsetInCU: 0x1A53A, offset: 0x1A53A, size: 0x8, addend: 0x0, symName: __ZNSt3__114__split_bufferIPNS_12basic_stringIcNS_11char_traitsIcEENS_9allocatorIcEEEERNS4_IS7_EEE21_ConstructTransactionC2B8ue170006EPPS7_m, symObjAddr: 0xAD20, symBinAddr: 0x10000DE3C, symSize: 0x44 }
  - { offsetInCU: 0x1A580, offset: 0x1A580, size: 0x8, addend: 0x0, symName: __ZNSt3__19allocatorIPNS_12basic_stringIcNS_11char_traitsIcEENS0_IcEEEEE9constructB8ue170006IS6_JS6_EEEvPT_DpOT0_, symObjAddr: 0xAD64, symBinAddr: 0x10000DE80, symSize: 0x28 }
  - { offsetInCU: 0x1A5D6, offset: 0x1A5D6, size: 0x8, addend: 0x0, symName: __ZNSt3__117__compressed_pairIPPNS_12basic_stringIcNS_11char_traitsIcEENS_9allocatorIcEEEERNS4_IS7_EEE6secondB8ue170006Ev, symObjAddr: 0xAD8C, symBinAddr: 0x10000DEA8, symSize: 0x28 }
  - { offsetInCU: 0x1A5FC, offset: 0x1A5FC, size: 0x8, addend: 0x0, symName: __ZNSt3__122__compressed_pair_elemIRNS_9allocatorIPNS_12basic_stringIcNS_11char_traitsIcEENS1_IcEEEEEELi1ELb0EE5__getB8ue170006Ev, symObjAddr: 0xADB4, symBinAddr: 0x10000DED0, symSize: 0x18 }
  - { offsetInCU: 0x1A622, offset: 0x1A622, size: 0x8, addend: 0x0, symName: __ZNSt3__114__split_bufferIPNS_12basic_stringIcNS_11char_traitsIcEENS_9allocatorIcEEEERNS4_IS7_EEE21_ConstructTransactionD2B8ue170006Ev, symObjAddr: 0xADCC, symBinAddr: 0x10000DEE8, symSize: 0x20 }
  - { offsetInCU: 0x1A64C, offset: 0x1A64C, size: 0x8, addend: 0x0, symName: __ZNKSt3__113move_iteratorIPPNS_12basic_stringIcNS_11char_traitsIcEENS_9allocatorIcEEEEE4baseB8ue170006Ev, symObjAddr: 0xAE64, symBinAddr: 0x10000DF80, symSize: 0x18 }
  - { offsetInCU: 0x1A672, offset: 0x1A672, size: 0x8, addend: 0x0, symName: __ZNSt3__113move_iteratorIPPNS_12basic_stringIcNS_11char_traitsIcEENS_9allocatorIcEEEEEC2B8ue170006ES8_, symObjAddr: 0xAE7C, symBinAddr: 0x10000DF98, symSize: 0x20 }
  - { offsetInCU: 0x1A6AA, offset: 0x1A6AA, size: 0x8, addend: 0x0, symName: __ZNSt3__19allocatorIPNS_12basic_stringIcNS_11char_traitsIcEENS0_IcEEEEE9constructB8ue170006IS6_JRKS6_EEEvPT_DpOT0_, symObjAddr: 0xAE9C, symBinAddr: 0x10000DFB8, symSize: 0x28 }
  - { offsetInCU: 0x1A700, offset: 0x1A700, size: 0x8, addend: 0x0, symName: __ZNSt3__19allocatorINS_12basic_stringIcNS_11char_traitsIcEENS0_IcEEEEE8allocateB8ue170006Em, symObjAddr: 0xAEC4, symBinAddr: 0x10000DFE0, symSize: 0x8C }
  - { offsetInCU: 0x1A734, offset: 0x1A734, size: 0x8, addend: 0x0, symName: __ZNSt3__116allocator_traitsINS_9allocatorINS_12basic_stringIcNS_11char_traitsIcEENS1_IcEEEEEEE8max_sizeB8ue170006IS7_vEEmRKS7_, symObjAddr: 0xAF50, symBinAddr: 0x10000E06C, symSize: 0x24 }
  - { offsetInCU: 0x1A762, offset: 0x1A762, size: 0x8, addend: 0x0, symName: __ZNKSt3__19allocatorINS_12basic_stringIcNS_11char_traitsIcEENS0_IcEEEEE8max_sizeB8ue170006Ev, symObjAddr: 0xAF74, symBinAddr: 0x10000E090, symSize: 0x18 }
  - { offsetInCU: 0x1A792, offset: 0x1A792, size: 0x8, addend: 0x0, symName: __ZNKSt3__123__move_backward_trivialclB8ue170006IPNS_12basic_stringIcNS_11char_traitsIcEENS_9allocatorIcEEEES8_Li0EEENS_4pairIPT_PT0_EESB_SB_SD_, symObjAddr: 0xB108, symBinAddr: 0x10000E224, symSize: 0x48 }
  - { offsetInCU: 0x1A7FA, offset: 0x1A7FA, size: 0x8, addend: 0x0, symName: __ZNSt3__114__split_bufferIPNS_12basic_stringIcNS_11char_traitsIcEENS_9allocatorIcEEEERNS4_IS7_EEEC2EmmS9_, symObjAddr: 0xB26C, symBinAddr: 0x10000E388, symSize: 0xD4 }
  - { offsetInCU: 0x1A86D, offset: 0x1A86D, size: 0x8, addend: 0x0, symName: __ZNSt3__117__compressed_pairIPPNS_12basic_stringIcNS_11char_traitsIcEENS_9allocatorIcEEEERNS4_IS7_EEEC1B8ue170006IDnSA_EEOT_OT0_, symObjAddr: 0xB340, symBinAddr: 0x10000E45C, symSize: 0x3C }
  - { offsetInCU: 0x1A8C5, offset: 0x1A8C5, size: 0x8, addend: 0x0, symName: __ZNSt3__117__compressed_pairIPPNS_12basic_stringIcNS_11char_traitsIcEENS_9allocatorIcEEEERNS4_IS7_EEEC2B8ue170006IDnSA_EEOT_OT0_, symObjAddr: 0xB3BC, symBinAddr: 0x10000E4D8, symSize: 0x48 }
  - { offsetInCU: 0x1A91D, offset: 0x1A91D, size: 0x8, addend: 0x0, symName: __ZNSt3__122__compressed_pair_elemIRNS_9allocatorIPNS_12basic_stringIcNS_11char_traitsIcEENS1_IcEEEEEELi1ELb0EEC2B8ue170006IS9_vEEOT_, symObjAddr: 0xB404, symBinAddr: 0x10000E520, symSize: 0x20 }
  - { offsetInCU: 0x1A95F, offset: 0x1A95F, size: 0x8, addend: 0x0, symName: __ZNSt3__19allocatorIPNS_12basic_stringIcNS_11char_traitsIcEENS0_IcEEEEE8allocateB8ue170006Em, symObjAddr: 0xB424, symBinAddr: 0x10000E540, symSize: 0x84 }
  - { offsetInCU: 0x1A99D, offset: 0x1A99D, size: 0x8, addend: 0x0, symName: __ZNSt3__116allocator_traitsINS_9allocatorIPNS_12basic_stringIcNS_11char_traitsIcEENS1_IcEEEEEEE8max_sizeB8ue170006IS8_vEEmRKS8_, symObjAddr: 0xB4A8, symBinAddr: 0x10000E5C4, symSize: 0x24 }
  - { offsetInCU: 0x1A9CB, offset: 0x1A9CB, size: 0x8, addend: 0x0, symName: __ZNKSt3__19allocatorIPNS_12basic_stringIcNS_11char_traitsIcEENS0_IcEEEEE8max_sizeB8ue170006Ev, symObjAddr: 0xB4CC, symBinAddr: 0x10000E5E8, symSize: 0x14 }
  - { offsetInCU: 0x1A9F1, offset: 0x1A9F1, size: 0x8, addend: 0x0, symName: __ZNSt3__117__compressed_pairIPPNS_12basic_stringIcNS_11char_traitsIcEENS_9allocatorIcEEEENS4_IS7_EEE5firstB8ue170006Ev, symObjAddr: 0xB4E0, symBinAddr: 0x10000E5FC, symSize: 0x24 }
  - { offsetInCU: 0x1AA17, offset: 0x1AA17, size: 0x8, addend: 0x0, symName: __ZNSt3__122__compressed_pair_elemIPPNS_12basic_stringIcNS_11char_traitsIcEENS_9allocatorIcEEEELi0ELb0EE5__getB8ue170006Ev, symObjAddr: 0xB504, symBinAddr: 0x10000E620, symSize: 0x14 }
  - { offsetInCU: 0x1AA3D, offset: 0x1AA3D, size: 0x8, addend: 0x0, symName: __ZNSt3__117__compressed_pairIPPNS_12basic_stringIcNS_11char_traitsIcEENS_9allocatorIcEEEERNS4_IS7_EEE5firstB8ue170006Ev, symObjAddr: 0xB518, symBinAddr: 0x10000E634, symSize: 0x24 }
  - { offsetInCU: 0x1AA63, offset: 0x1AA63, size: 0x8, addend: 0x0, symName: __ZNSt3__114__split_bufferIPNS_12basic_stringIcNS_11char_traitsIcEENS_9allocatorIcEEEERNS4_IS7_EEED2Ev, symObjAddr: 0xB53C, symBinAddr: 0x10000E658, symSize: 0x80 }
  - { offsetInCU: 0x1AA8F, offset: 0x1AA8F, size: 0x8, addend: 0x0, symName: __ZNSt3__114__split_bufferIPNS_12basic_stringIcNS_11char_traitsIcEENS_9allocatorIcEEEERNS4_IS7_EEE5clearB8ue170006Ev, symObjAddr: 0xB5BC, symBinAddr: 0x10000E6D8, symSize: 0x28 }
  - { offsetInCU: 0x1AAB5, offset: 0x1AAB5, size: 0x8, addend: 0x0, symName: __ZNKSt3__114__split_bufferIPNS_12basic_stringIcNS_11char_traitsIcEENS_9allocatorIcEEEERNS4_IS7_EEE8capacityB8ue170006Ev, symObjAddr: 0xB5E4, symBinAddr: 0x10000E700, symSize: 0x40 }
  - { offsetInCU: 0x1AADB, offset: 0x1AADB, size: 0x8, addend: 0x0, symName: __ZNSt3__114__split_bufferIPNS_12basic_stringIcNS_11char_traitsIcEENS_9allocatorIcEEEERNS4_IS7_EEE17__destruct_at_endB8ue170006EPS7_, symObjAddr: 0xB624, symBinAddr: 0x10000E740, symSize: 0x2C }
  - { offsetInCU: 0x1AB0F, offset: 0x1AB0F, size: 0x8, addend: 0x0, symName: __ZNSt3__114__split_bufferIPNS_12basic_stringIcNS_11char_traitsIcEENS_9allocatorIcEEEERNS4_IS7_EEE17__destruct_at_endB8ue170006EPS7_NS_17integral_constantIbLb0EEE, symObjAddr: 0xB650, symBinAddr: 0x10000E76C, symSize: 0x94 }
  - { offsetInCU: 0x1AB4F, offset: 0x1AB4F, size: 0x8, addend: 0x0, symName: __ZNKSt3__114__split_bufferIPNS_12basic_stringIcNS_11char_traitsIcEENS_9allocatorIcEEEERNS4_IS7_EEE9__end_capB8ue170006Ev, symObjAddr: 0xB6E4, symBinAddr: 0x10000E800, symSize: 0x28 }
  - { offsetInCU: 0x1AB75, offset: 0x1AB75, size: 0x8, addend: 0x0, symName: __ZNKSt3__117__compressed_pairIPPNS_12basic_stringIcNS_11char_traitsIcEENS_9allocatorIcEEEERNS4_IS7_EEE5firstB8ue170006Ev, symObjAddr: 0xB70C, symBinAddr: 0x10000E828, symSize: 0x24 }
  - { offsetInCU: 0x1AB9B, offset: 0x1AB9B, size: 0x8, addend: 0x0, symName: __ZNSt3__116__deque_iteratorINS_12basic_stringIcNS_11char_traitsIcEENS_9allocatorIcEEEEPS6_RS6_PS7_lLl170EEpLB8ue170006El, symObjAddr: 0xB730, symBinAddr: 0x10000E84C, symSize: 0x120 }
  - { offsetInCU: 0x1ABED, offset: 0x1ABED, size: 0x8, addend: 0x0, symName: __ZNSt3__15dequeINS_12basic_stringIcNS_11char_traitsIcEENS_9allocatorIcEEEENS4_IS6_EEE13__deque_rangeC2B8ue170006ENS_16__deque_iteratorIS6_PS6_RS6_PSB_lLl170EEESE_, symObjAddr: 0xB850, symBinAddr: 0x10000E96C, symSize: 0x34 }
  - { offsetInCU: 0x1AC35, offset: 0x1AC35, size: 0x8, addend: 0x0, symName: __ZNSt3__15dequeINS_12basic_stringIcNS_11char_traitsIcEENS_9allocatorIcEEEENS4_IS6_EEE19__deque_block_rangeC1B8ue170006EPS6_SA_, symObjAddr: 0xB8B4, symBinAddr: 0x10000E9D0, symSize: 0x3C }
  - { offsetInCU: 0x1AC7D, offset: 0x1AC7D, size: 0x8, addend: 0x0, symName: __ZNSt3__15dequeINS_12basic_stringIcNS_11char_traitsIcEENS_9allocatorIcEEEENS4_IS6_EEE19__deque_block_rangeC2B8ue170006EPS6_SA_, symObjAddr: 0xB8F0, symBinAddr: 0x10000EA0C, symSize: 0x2C }
  - { offsetInCU: 0x1ACC5, offset: 0x1ACC5, size: 0x8, addend: 0x0, symName: __ZNSt3__15dequeINS_12basic_stringIcNS_11char_traitsIcEENS_9allocatorIcEEEENS4_IS6_EEE21_ConstructTransactionC2B8ue170006EPS8_RNS8_19__deque_block_rangeE, symObjAddr: 0xB91C, symBinAddr: 0x10000EA38, symSize: 0x48 }
  - { offsetInCU: 0x1AD0D, offset: 0x1AD0D, size: 0x8, addend: 0x0, symName: __ZNSt3__19allocatorINS_12basic_stringIcNS_11char_traitsIcEENS0_IcEEEEE9constructB8ue170006IS5_JRKS5_EEEvPT_DpOT0_, symObjAddr: 0xB964, symBinAddr: 0x10000EA80, symSize: 0x30 }
  - { offsetInCU: 0x1AD63, offset: 0x1AD63, size: 0x8, addend: 0x0, symName: __ZNSt3__15dequeINS_12basic_stringIcNS_11char_traitsIcEENS_9allocatorIcEEEENS4_IS6_EEE21_ConstructTransactionD2B8ue170006Ev, symObjAddr: 0xB994, symBinAddr: 0x10000EAB0, symSize: 0x5C }
  - { offsetInCU: 0x1AD8D, offset: 0x1AD8D, size: 0x8, addend: 0x0, symName: __ZNSt3__116__deque_iteratorINS_12basic_stringIcNS_11char_traitsIcEENS_9allocatorIcEEEEPKS6_RS7_PKS8_lLl170EEC1B8ue170006ESB_S8_, symObjAddr: 0xBB3C, symBinAddr: 0x10000EC58, symSize: 0x3C }
  - { offsetInCU: 0x1ADD5, offset: 0x1ADD5, size: 0x8, addend: 0x0, symName: __ZNSt3__116__deque_iteratorINS_12basic_stringIcNS_11char_traitsIcEENS_9allocatorIcEEEEPKS6_RS7_PKS8_lLl170EEC2B8ue170006ESB_S8_, symObjAddr: 0xBB78, symBinAddr: 0x10000EC94, symSize: 0x2C }
  - { offsetInCU: 0x1AEAA, offset: 0x1AEAA, size: 0x8, addend: 0x0, symName: __ZNKSt3__113basic_istreamIcNS_11char_traitsIcEEE6sentrycvbB8ue170006Ev, symObjAddr: 0xBBA4, symBinAddr: 0x10000ECC0, symSize: 0x1C }
  - { offsetInCU: 0x1AED0, offset: 0x1AED0, size: 0x8, addend: 0x0, symName: __ZNSt3__112basic_stringIcNS_11char_traitsIcEENS_9allocatorIcEEE5clearB8ue170006Ev, symObjAddr: 0xBBC0, symBinAddr: 0x10000ECDC, symSize: 0x78 }
  - { offsetInCU: 0x1AEF8, offset: 0x1AEF8, size: 0x8, addend: 0x0, symName: __ZNKSt3__112basic_stringIcNS_11char_traitsIcEENS_9allocatorIcEEE8max_sizeB8ue170006Ev, symObjAddr: 0xBC38, symBinAddr: 0x10000ED54, symSize: 0xAC }
  - { offsetInCU: 0x1AF4A, offset: 0x1AF4A, size: 0x8, addend: 0x0, symName: __ZNSt3__114numeric_limitsIlE3maxB8ue170006Ev, symObjAddr: 0xBCE4, symBinAddr: 0x10000EE00, symSize: 0x14 }
  - { offsetInCU: 0x1AF5E, offset: 0x1AF5E, size: 0x8, addend: 0x0, symName: __ZNSt3__115basic_streambufIcNS_11char_traitsIcEEE5sgetcB8ue170006Ev, symObjAddr: 0xBCF8, symBinAddr: 0x10000EE14, symSize: 0x70 }
  - { offsetInCU: 0x1AF84, offset: 0x1AF84, size: 0x8, addend: 0x0, symName: __ZNSt3__111char_traitsIcE12to_char_typeB8ue170006Ei, symObjAddr: 0xBD68, symBinAddr: 0x10000EE84, symSize: 0x18 }
  - { offsetInCU: 0x1AFA7, offset: 0x1AFA7, size: 0x8, addend: 0x0, symName: __ZNKSt3__15ctypeIcE2isB8ue170006Ejc, symObjAddr: 0xBD80, symBinAddr: 0x10000EE9C, symSize: 0x7C }
  - { offsetInCU: 0x1AFEB, offset: 0x1AFEB, size: 0x8, addend: 0x0, symName: __ZNSt3__115basic_streambufIcNS_11char_traitsIcEEE6sbumpcB8ue170006Ev, symObjAddr: 0xBDFC, symBinAddr: 0x10000EF18, symSize: 0x78 }
  - { offsetInCU: 0x1B011, offset: 0x1B011, size: 0x8, addend: 0x0, symName: __ZNSt3__18ios_base18__setstate_nothrowB8ue170006Ej, symObjAddr: 0xBE74, symBinAddr: 0x10000EF90, symSize: 0x64 }
  - { offsetInCU: 0x1B046, offset: 0x1B046, size: 0x8, addend: 0x0, symName: __ZNKSt3__19basic_iosIcNS_11char_traitsIcEEE10exceptionsB8ue170006Ev, symObjAddr: 0xBED8, symBinAddr: 0x10000EFF4, symSize: 0x24 }
  - { offsetInCU: 0x1B06C, offset: 0x1B06C, size: 0x8, addend: 0x0, symName: __ZNSt3__111char_traitsIcE6assignB8ue170006ERcRKc, symObjAddr: 0xBEFC, symBinAddr: 0x10000F018, symSize: 0x24 }
  - { offsetInCU: 0x1B09D, offset: 0x1B09D, size: 0x8, addend: 0x0, symName: __ZNSt3__112basic_stringIcNS_11char_traitsIcEENS_9allocatorIcEEE18__get_long_pointerB8ue170006Ev, symObjAddr: 0xBF20, symBinAddr: 0x10000F03C, symSize: 0x28 }
  - { offsetInCU: 0x1B0C3, offset: 0x1B0C3, size: 0x8, addend: 0x0, symName: __ZNSt3__112basic_stringIcNS_11char_traitsIcEENS_9allocatorIcEEE19__get_short_pointerB8ue170006Ev, symObjAddr: 0xBF48, symBinAddr: 0x10000F064, symSize: 0x28 }
  - { offsetInCU: 0x1B0E9, offset: 0x1B0E9, size: 0x8, addend: 0x0, symName: __ZNSt3__112basic_stringIcNS_11char_traitsIcEENS_9allocatorIcEEE16__set_short_sizeB8ue170006Em, symObjAddr: 0xBF70, symBinAddr: 0x10000F08C, symSize: 0x78 }
  - { offsetInCU: 0x1B11E, offset: 0x1B11E, size: 0x8, addend: 0x0, symName: __ZNSt3__114pointer_traitsIPcE10pointer_toB8ue170006ERc, symObjAddr: 0xBFE8, symBinAddr: 0x10000F104, symSize: 0x14 }
  - { offsetInCU: 0x1B141, offset: 0x1B141, size: 0x8, addend: 0x0, symName: __ZNKSt3__112basic_stringIcNS_11char_traitsIcEENS_9allocatorIcEEE7__allocB8ue170006Ev, symObjAddr: 0xBFFC, symBinAddr: 0x10000F118, symSize: 0x24 }
  - { offsetInCU: 0x1B167, offset: 0x1B167, size: 0x8, addend: 0x0, symName: __ZNSt3__114numeric_limitsImE3maxB8ue170006Ev, symObjAddr: 0xC020, symBinAddr: 0x10000F13C, symSize: 0x14 }
  - { offsetInCU: 0x1B17B, offset: 0x1B17B, size: 0x8, addend: 0x0, symName: __ZNKSt3__117__compressed_pairINS_12basic_stringIcNS_11char_traitsIcEENS_9allocatorIcEEE5__repES5_E6secondB8ue170006Ev, symObjAddr: 0xC034, symBinAddr: 0x10000F150, symSize: 0x24 }
  - { offsetInCU: 0x1B1A1, offset: 0x1B1A1, size: 0x8, addend: 0x0, symName: __ZNKSt3__122__compressed_pair_elemINS_9allocatorIcEELi1ELb1EE5__getB8ue170006Ev, symObjAddr: 0xC058, symBinAddr: 0x10000F174, symSize: 0x14 }
  - { offsetInCU: 0x1B1C7, offset: 0x1B1C7, size: 0x8, addend: 0x0, symName: __ZNSt3__123__libcpp_numeric_limitsImLb1EE3maxB8ue170006Ev, symObjAddr: 0xC06C, symBinAddr: 0x10000F188, symSize: 0x8 }
  - { offsetInCU: 0x1B1DB, offset: 0x1B1DB, size: 0x8, addend: 0x0, symName: __ZNSt3__123__libcpp_numeric_limitsIlLb1EE3maxB8ue170006Ev, symObjAddr: 0xC074, symBinAddr: 0x10000F190, symSize: 0x8 }
  - { offsetInCU: 0x1B1EF, offset: 0x1B1EF, size: 0x8, addend: 0x0, symName: __ZNSt3__111char_traitsIcE11to_int_typeB8ue170006Ec, symObjAddr: 0xC07C, symBinAddr: 0x10000F198, symSize: 0x14 }
  - { offsetInCU: 0x1B212, offset: 0x1B212, size: 0x8, addend: 0x0, symName: __Z7isasciii, symObjAddr: 0xC090, symBinAddr: 0x10000F1AC, symSize: 0x24 }
  - { offsetInCU: 0x1B23F, offset: 0x1B23F, size: 0x8, addend: 0x0, symName: __ZNKSt3__18ios_base10exceptionsB8ue170006Ev, symObjAddr: 0xC0B4, symBinAddr: 0x10000F1D0, symSize: 0x18 }
  - { offsetInCU: 0x1B267, offset: 0x1B267, size: 0x8, addend: 0x0, symName: __ZNSt3__15dequeINS_12basic_stringIcNS_11char_traitsIcEENS_9allocatorIcEEEENS4_IS6_EEE9push_backERKS6_, symObjAddr: 0xC0CC, symBinAddr: 0x10000F1E8, symSize: 0xAC }
  - { offsetInCU: 0x1B2AD, offset: 0x1B2AD, size: 0x8, addend: 0x0, symName: __ZNSt3__15dequeINS_12basic_stringIcNS_11char_traitsIcEENS_9allocatorIcEEEENS4_IS6_EEE19__add_back_capacityEv, symObjAddr: 0xC178, symBinAddr: 0x10000F294, symSize: 0x35C }
  - { offsetInCU: 0x1B367, offset: 0x1B367, size: 0x8, addend: 0x0, symName: __ZNSt3__122__allocator_destructorINS_9allocatorINS_12basic_stringIcNS_11char_traitsIcEENS1_IcEEEEEEEC1B8ue170006ERS7_m, symObjAddr: 0xC4D4, symBinAddr: 0x10000F5F0, symSize: 0x3C }
  - { offsetInCU: 0x1B434, offset: 0x1B434, size: 0x8, addend: 0x0, symName: __ZNSt3__110unique_ptrIPNS_12basic_stringIcNS_11char_traitsIcEENS_9allocatorIcEEEENS_22__allocator_destructorINS4_IS6_EEEEEC1B8ue170006ILb1EvEES7_NS_16__dependent_typeINS_27__unique_ptr_deleter_sfinaeISA_EEXT_EE20__good_rval_ref_typeE, symObjAddr: 0xC510, symBinAddr: 0x10000F62C, symSize: 0x3C }
  - { offsetInCU: 0x1B485, offset: 0x1B485, size: 0x8, addend: 0x0, symName: __ZNKSt3__110unique_ptrIPNS_12basic_stringIcNS_11char_traitsIcEENS_9allocatorIcEEEENS_22__allocator_destructorINS4_IS6_EEEEE3getB8ue170006Ev, symObjAddr: 0xC54C, symBinAddr: 0x10000F668, symSize: 0x28 }
  - { offsetInCU: 0x1B4AB, offset: 0x1B4AB, size: 0x8, addend: 0x0, symName: __ZNSt3__110unique_ptrIPNS_12basic_stringIcNS_11char_traitsIcEENS_9allocatorIcEEEENS_22__allocator_destructorINS4_IS6_EEEEE7releaseB8ue170006Ev, symObjAddr: 0xC574, symBinAddr: 0x10000F690, symSize: 0x44 }
  - { offsetInCU: 0x1B4E0, offset: 0x1B4E0, size: 0x8, addend: 0x0, symName: __ZNSt3__110unique_ptrIPNS_12basic_stringIcNS_11char_traitsIcEENS_9allocatorIcEEEENS_22__allocator_destructorINS4_IS6_EEEEED1B8ue170006Ev, symObjAddr: 0xC5B8, symBinAddr: 0x10000F6D4, symSize: 0x2C }
  - { offsetInCU: 0x1B50A, offset: 0x1B50A, size: 0x8, addend: 0x0, symName: __ZNSt3__122__allocator_destructorINS_9allocatorINS_12basic_stringIcNS_11char_traitsIcEENS1_IcEEEEEEEC2B8ue170006ERS7_m, symObjAddr: 0xC5E4, symBinAddr: 0x10000F700, symSize: 0x2C }
  - { offsetInCU: 0x1B550, offset: 0x1B550, size: 0x8, addend: 0x0, symName: __ZNSt3__110unique_ptrIPNS_12basic_stringIcNS_11char_traitsIcEENS_9allocatorIcEEEENS_22__allocator_destructorINS4_IS6_EEEEEC2B8ue170006ILb1EvEES7_NS_16__dependent_typeINS_27__unique_ptr_deleter_sfinaeISA_EEXT_EE20__good_rval_ref_typeE, symObjAddr: 0xC610, symBinAddr: 0x10000F72C, symSize: 0x5C }
  - { offsetInCU: 0x1B5A1, offset: 0x1B5A1, size: 0x8, addend: 0x0, symName: __ZNSt3__117__compressed_pairIPNS_12basic_stringIcNS_11char_traitsIcEENS_9allocatorIcEEEENS_22__allocator_destructorINS4_IS6_EEEEEC1B8ue170006IRS7_SA_EEOT_OT0_, symObjAddr: 0xC66C, symBinAddr: 0x10000F788, symSize: 0x3C }
  - { offsetInCU: 0x1B5F9, offset: 0x1B5F9, size: 0x8, addend: 0x0, symName: __ZNSt3__117__compressed_pairIPNS_12basic_stringIcNS_11char_traitsIcEENS_9allocatorIcEEEENS_22__allocator_destructorINS4_IS6_EEEEEC2B8ue170006IRS7_SA_EEOT_OT0_, symObjAddr: 0xC6A8, symBinAddr: 0x10000F7C4, symSize: 0x48 }
  - { offsetInCU: 0x1B651, offset: 0x1B651, size: 0x8, addend: 0x0, symName: __ZNSt3__122__compressed_pair_elemIPNS_12basic_stringIcNS_11char_traitsIcEENS_9allocatorIcEEEELi0ELb0EEC2B8ue170006IRS7_vEEOT_, symObjAddr: 0xC6F0, symBinAddr: 0x10000F80C, symSize: 0x24 }
  - { offsetInCU: 0x1B693, offset: 0x1B693, size: 0x8, addend: 0x0, symName: __ZNSt3__122__compressed_pair_elemINS_22__allocator_destructorINS_9allocatorINS_12basic_stringIcNS_11char_traitsIcEENS2_IcEEEEEEEELi1ELb0EEC2B8ue170006IS9_vEEOT_, symObjAddr: 0xC714, symBinAddr: 0x10000F830, symSize: 0x24 }
  - { offsetInCU: 0x1B6D5, offset: 0x1B6D5, size: 0x8, addend: 0x0, symName: __ZNKSt3__117__compressed_pairIPNS_12basic_stringIcNS_11char_traitsIcEENS_9allocatorIcEEEENS_22__allocator_destructorINS4_IS6_EEEEE5firstB8ue170006Ev, symObjAddr: 0xC738, symBinAddr: 0x10000F854, symSize: 0x24 }
  - { offsetInCU: 0x1B6FB, offset: 0x1B6FB, size: 0x8, addend: 0x0, symName: __ZNKSt3__122__compressed_pair_elemIPNS_12basic_stringIcNS_11char_traitsIcEENS_9allocatorIcEEEELi0ELb0EE5__getB8ue170006Ev, symObjAddr: 0xC75C, symBinAddr: 0x10000F878, symSize: 0x14 }
  - { offsetInCU: 0x1B721, offset: 0x1B721, size: 0x8, addend: 0x0, symName: __ZNSt3__117__compressed_pairIPNS_12basic_stringIcNS_11char_traitsIcEENS_9allocatorIcEEEENS_22__allocator_destructorINS4_IS6_EEEEE5firstB8ue170006Ev, symObjAddr: 0xC770, symBinAddr: 0x10000F88C, symSize: 0x24 }
  - { offsetInCU: 0x1B747, offset: 0x1B747, size: 0x8, addend: 0x0, symName: __ZNSt3__122__compressed_pair_elemIPNS_12basic_stringIcNS_11char_traitsIcEENS_9allocatorIcEEEELi0ELb0EE5__getB8ue170006Ev, symObjAddr: 0xC794, symBinAddr: 0x10000F8B0, symSize: 0x14 }
  - { offsetInCU: 0x1B76D, offset: 0x1B76D, size: 0x8, addend: 0x0, symName: __ZNSt3__110unique_ptrIPNS_12basic_stringIcNS_11char_traitsIcEENS_9allocatorIcEEEENS_22__allocator_destructorINS4_IS6_EEEEED2B8ue170006Ev, symObjAddr: 0xC7A8, symBinAddr: 0x10000F8C4, symSize: 0x30 }
  - { offsetInCU: 0x1B797, offset: 0x1B797, size: 0x8, addend: 0x0, symName: __ZNSt3__110unique_ptrIPNS_12basic_stringIcNS_11char_traitsIcEENS_9allocatorIcEEEENS_22__allocator_destructorINS4_IS6_EEEEE5resetB8ue170006ES7_, symObjAddr: 0xC7D8, symBinAddr: 0x10000F8F4, symSize: 0x78 }
  - { offsetInCU: 0x1B7DB, offset: 0x1B7DB, size: 0x8, addend: 0x0, symName: __ZNSt3__117__compressed_pairIPNS_12basic_stringIcNS_11char_traitsIcEENS_9allocatorIcEEEENS_22__allocator_destructorINS4_IS6_EEEEE6secondB8ue170006Ev, symObjAddr: 0xC850, symBinAddr: 0x10000F96C, symSize: 0x28 }
  - { offsetInCU: 0x1B801, offset: 0x1B801, size: 0x8, addend: 0x0, symName: __ZNSt3__122__allocator_destructorINS_9allocatorINS_12basic_stringIcNS_11char_traitsIcEENS1_IcEEEEEEEclB8ue170006EPS6_, symObjAddr: 0xC878, symBinAddr: 0x10000F994, symSize: 0x34 }
  - { offsetInCU: 0x1B835, offset: 0x1B835, size: 0x8, addend: 0x0, symName: __ZNSt3__122__compressed_pair_elemINS_22__allocator_destructorINS_9allocatorINS_12basic_stringIcNS_11char_traitsIcEENS2_IcEEEEEEEELi1ELb0EE5__getB8ue170006Ev, symObjAddr: 0xC8AC, symBinAddr: 0x10000F9C8, symSize: 0x14 }
  - { offsetInCU: 0x1B85B, offset: 0x1B85B, size: 0x8, addend: 0x0, symName: __ZNSt3__111char_traitsIcE2eqEcc, symObjAddr: 0xCAF4, symBinAddr: 0x10000FC10, symSize: 0x28 }
  - { offsetInCU: 0x1B88C, offset: 0x1B88C, size: 0x8, addend: 0x0, symName: __ZNSt3__15dequeI6AlumnoNS_9allocatorIS1_EEE9push_backERKS1_, symObjAddr: 0xCB1C, symBinAddr: 0x10000FC38, symSize: 0xAC }
  - { offsetInCU: 0x1B8D2, offset: 0x1B8D2, size: 0x8, addend: 0x0, symName: __ZNKSt3__15dequeI6AlumnoNS_9allocatorIS1_EEE12__back_spareB8ue170006Ev, symObjAddr: 0xCBC8, symBinAddr: 0x10000FCE4, symSize: 0x54 }
  - { offsetInCU: 0x1B8F8, offset: 0x1B8F8, size: 0x8, addend: 0x0, symName: __ZNSt3__15dequeI6AlumnoNS_9allocatorIS1_EEE19__add_back_capacityEv, symObjAddr: 0xCC1C, symBinAddr: 0x10000FD38, symSize: 0x364 }
  - { offsetInCU: 0x1B9AD, offset: 0x1B9AD, size: 0x8, addend: 0x0, symName: __ZNKSt3__15dequeI6AlumnoNS_9allocatorIS1_EEE24__annotate_increase_backB8ue170006Em, symObjAddr: 0xCF80, symBinAddr: 0x10001009C, symSize: 0x7C }
  - { offsetInCU: 0x1B9E2, offset: 0x1B9E2, size: 0x8, addend: 0x0, symName: __ZNSt3__116allocator_traitsINS_9allocatorI6AlumnoEEE9constructB8ue170006IS2_JRKS2_EvEEvRS3_PT_DpOT0_, symObjAddr: 0xCFFC, symBinAddr: 0x100010118, symSize: 0x34 }
  - { offsetInCU: 0x1BA39, offset: 0x1BA39, size: 0x8, addend: 0x0, symName: __ZNKSt3__15dequeI6AlumnoNS_9allocatorIS1_EEE10__capacityB8ue170006Ev, symObjAddr: 0xD030, symBinAddr: 0x10001014C, symSize: 0x64 }
  - { offsetInCU: 0x1BA5F, offset: 0x1BA5F, size: 0x8, addend: 0x0, symName: __ZNKSt3__15dequeI6AlumnoNS_9allocatorIS1_EEE13__front_spareB8ue170006Ev, symObjAddr: 0xD094, symBinAddr: 0x1000101B0, symSize: 0x18 }
  - { offsetInCU: 0x1BA85, offset: 0x1BA85, size: 0x8, addend: 0x0, symName: __ZNSt3__114__split_bufferIP6AlumnoNS_9allocatorIS2_EEE9push_backB8ue170006ERKS2_, symObjAddr: 0xD0AC, symBinAddr: 0x1000101C8, symSize: 0x270 }
  - { offsetInCU: 0x1BAFD, offset: 0x1BAFD, size: 0x8, addend: 0x0, symName: __ZNKSt3__114__split_bufferIP6AlumnoNS_9allocatorIS2_EEE12__back_spareB8ue170006Ev, symObjAddr: 0xD31C, symBinAddr: 0x100010438, symSize: 0x40 }
  - { offsetInCU: 0x1BB23, offset: 0x1BB23, size: 0x8, addend: 0x0, symName: __ZNSt3__114__split_bufferIP6AlumnoNS_9allocatorIS2_EEE9push_backEOS2_, symObjAddr: 0xD35C, symBinAddr: 0x100010478, symSize: 0x270 }
  - { offsetInCU: 0x1BB9B, offset: 0x1BB9B, size: 0x8, addend: 0x0, symName: __ZNSt3__116allocator_traitsINS_9allocatorI6AlumnoEEE8allocateB8ue170006ERS3_m, symObjAddr: 0xD5CC, symBinAddr: 0x1000106E8, symSize: 0x2C }
  - { offsetInCU: 0x1BBCE, offset: 0x1BBCE, size: 0x8, addend: 0x0, symName: __ZNSt3__114__split_bufferIP6AlumnoNS_9allocatorIS2_EEE10push_frontEOS2_, symObjAddr: 0xD5F8, symBinAddr: 0x100010714, symSize: 0x26C }
  - { offsetInCU: 0x1BC46, offset: 0x1BC46, size: 0x8, addend: 0x0, symName: __ZNSt3__114__split_bufferIP6AlumnoRNS_9allocatorIS2_EEEC1EmmS5_, symObjAddr: 0xD864, symBinAddr: 0x100010980, symSize: 0x44 }
  - { offsetInCU: 0x1BCA1, offset: 0x1BCA1, size: 0x8, addend: 0x0, symName: __ZNSt3__122__allocator_destructorINS_9allocatorI6AlumnoEEEC1B8ue170006ERS3_m, symObjAddr: 0xD8A8, symBinAddr: 0x1000109C4, symSize: 0x3C }
  - { offsetInCU: 0x1BD69, offset: 0x1BD69, size: 0x8, addend: 0x0, symName: __ZNSt3__110unique_ptrIP6AlumnoNS_22__allocator_destructorINS_9allocatorIS1_EEEEEC1B8ue170006ILb1EvEES2_NS_16__dependent_typeINS_27__unique_ptr_deleter_sfinaeIS6_EEXT_EE20__good_rval_ref_typeE, symObjAddr: 0xD8E4, symBinAddr: 0x100010A00, symSize: 0x3C }
  - { offsetInCU: 0x1BDBA, offset: 0x1BDBA, size: 0x8, addend: 0x0, symName: __ZNSt3__114__split_bufferIP6AlumnoRNS_9allocatorIS2_EEE9push_backEOS2_, symObjAddr: 0xD920, symBinAddr: 0x100010A3C, symSize: 0x270 }
  - { offsetInCU: 0x1BE32, offset: 0x1BE32, size: 0x8, addend: 0x0, symName: __ZNKSt3__110unique_ptrIP6AlumnoNS_22__allocator_destructorINS_9allocatorIS1_EEEEE3getB8ue170006Ev, symObjAddr: 0xDB90, symBinAddr: 0x100010CAC, symSize: 0x28 }
  - { offsetInCU: 0x1BE58, offset: 0x1BE58, size: 0x8, addend: 0x0, symName: __ZNSt3__110unique_ptrIP6AlumnoNS_22__allocator_destructorINS_9allocatorIS1_EEEEE7releaseB8ue170006Ev, symObjAddr: 0xDBB8, symBinAddr: 0x100010CD4, symSize: 0x44 }
  - { offsetInCU: 0x1BE8D, offset: 0x1BE8D, size: 0x8, addend: 0x0, symName: __ZNSt3__114__split_bufferIP6AlumnoRNS_9allocatorIS2_EEE10push_frontERKS2_, symObjAddr: 0xDBFC, symBinAddr: 0x100010D18, symSize: 0x26C }
  - { offsetInCU: 0x1BF05, offset: 0x1BF05, size: 0x8, addend: 0x0, symName: __ZNSt3__114__split_bufferIP6AlumnoNS_9allocatorIS2_EEE9__end_capB8ue170006Ev, symObjAddr: 0xDEA4, symBinAddr: 0x100010FC0, symSize: 0x28 }
  - { offsetInCU: 0x1BF2B, offset: 0x1BF2B, size: 0x8, addend: 0x0, symName: __ZNSt3__114__split_bufferIP6AlumnoRNS_9allocatorIS2_EEE9__end_capB8ue170006Ev, symObjAddr: 0xDECC, symBinAddr: 0x100010FE8, symSize: 0x28 }
  - { offsetInCU: 0x1BF51, offset: 0x1BF51, size: 0x8, addend: 0x0, symName: __ZNSt3__110unique_ptrIP6AlumnoNS_22__allocator_destructorINS_9allocatorIS1_EEEEED1B8ue170006Ev, symObjAddr: 0xDEF4, symBinAddr: 0x100011010, symSize: 0x2C }
  - { offsetInCU: 0x1BF7B, offset: 0x1BF7B, size: 0x8, addend: 0x0, symName: __ZNSt3__114__split_bufferIP6AlumnoRNS_9allocatorIS2_EEED1Ev, symObjAddr: 0xDF20, symBinAddr: 0x10001103C, symSize: 0x2C }
  - { offsetInCU: 0x1BFA7, offset: 0x1BFA7, size: 0x8, addend: 0x0, symName: __ZNSt3__114__split_bufferIP6AlumnoRNS_9allocatorIS2_EEE18__construct_at_endINS_13move_iteratorIPS2_EEEENS_9enable_ifIXsr31__has_forward_iterator_categoryIT_EE5valueEvE4typeESC_SC_, symObjAddr: 0xDF8C, symBinAddr: 0x1000110A8, symSize: 0x60 }
  - { offsetInCU: 0x1BFF4, offset: 0x1BFF4, size: 0x8, addend: 0x0, symName: __ZNSt3__113move_iteratorIPP6AlumnoEC1B8ue170006ES3_, symObjAddr: 0xDFEC, symBinAddr: 0x100011108, symSize: 0x34 }
  - { offsetInCU: 0x1C02C, offset: 0x1C02C, size: 0x8, addend: 0x0, symName: __ZNSt3__116allocator_traitsINS_9allocatorIP6AlumnoEEE9constructB8ue170006IS3_JRKS3_EvEEvRS4_PT_DpOT0_, symObjAddr: 0xE020, symBinAddr: 0x10001113C, symSize: 0x34 }
  - { offsetInCU: 0x1C09C, offset: 0x1C09C, size: 0x8, addend: 0x0, symName: __ZNKSt3__114__move_trivialclB8ue170006IP6AlumnoS3_Li0EEENS_4pairIPT_PT0_EES6_S6_S8_, symObjAddr: 0xE1F0, symBinAddr: 0x10001130C, symSize: 0x48 }
  - { offsetInCU: 0x1C104, offset: 0x1C104, size: 0x8, addend: 0x0, symName: __ZNSt3__14pairIPP6AlumnoS3_EC1B8ue170006ERKS3_S6_, symObjAddr: 0xE468, symBinAddr: 0x100011584, symSize: 0x3C }
  - { offsetInCU: 0x1C14A, offset: 0x1C14A, size: 0x8, addend: 0x0, symName: __ZNSt3__14pairIPP6AlumnoS3_EC2B8ue170006ERKS3_S6_, symObjAddr: 0xE4A4, symBinAddr: 0x1000115C0, symSize: 0x34 }
  - { offsetInCU: 0x1C190, offset: 0x1C190, size: 0x8, addend: 0x0, symName: __ZNSt3__118__unwrap_iter_implIPP6AlumnoLb1EE8__unwrapB8ue170006ES3_, symObjAddr: 0xE4D8, symBinAddr: 0x1000115F4, symSize: 0x24 }
  - { offsetInCU: 0x1C1B3, offset: 0x1C1B3, size: 0x8, addend: 0x0, symName: __ZNSt3__118__unwrap_iter_implIPP6AlumnoLb1EE8__rewrapB8ue170006ES3_S3_, symObjAddr: 0xE4FC, symBinAddr: 0x100011618, symSize: 0x50 }
  - { offsetInCU: 0x1C1E4, offset: 0x1C1E4, size: 0x8, addend: 0x0, symName: __ZNSt3__114__split_bufferIP6AlumnoRNS_9allocatorIS2_EEE28__construct_at_end_with_sizeINS_13move_iteratorIPS2_EEEEvT_m, symObjAddr: 0xE54C, symBinAddr: 0x100011668, symSize: 0xE4 }
  - { offsetInCU: 0x1C24A, offset: 0x1C24A, size: 0x8, addend: 0x0, symName: __ZNSt3__114__split_bufferIP6AlumnoRNS_9allocatorIS2_EEE21_ConstructTransactionC1B8ue170006EPPS2_m, symObjAddr: 0xE66C, symBinAddr: 0x100011788, symSize: 0x3C }
  - { offsetInCU: 0x1C290, offset: 0x1C290, size: 0x8, addend: 0x0, symName: __ZNSt3__116allocator_traitsINS_9allocatorIP6AlumnoEEE9constructB8ue170006IS3_JS3_EvEEvRS4_PT_DpOT0_, symObjAddr: 0xE6A8, symBinAddr: 0x1000117C4, symSize: 0x34 }
  - { offsetInCU: 0x1C2E7, offset: 0x1C2E7, size: 0x8, addend: 0x0, symName: __ZNSt3__114__split_bufferIP6AlumnoRNS_9allocatorIS2_EEE7__allocB8ue170006Ev, symObjAddr: 0xE6DC, symBinAddr: 0x1000117F8, symSize: 0x28 }
  - { offsetInCU: 0x1C30D, offset: 0x1C30D, size: 0x8, addend: 0x0, symName: __ZNKSt3__113move_iteratorIPP6AlumnoEdeB8ue170006Ev, symObjAddr: 0xE704, symBinAddr: 0x100011820, symSize: 0x18 }
  - { offsetInCU: 0x1C333, offset: 0x1C333, size: 0x8, addend: 0x0, symName: __ZNSt3__113move_iteratorIPP6AlumnoEppB8ue170006Ev, symObjAddr: 0xE71C, symBinAddr: 0x100011838, symSize: 0x20 }
  - { offsetInCU: 0x1C359, offset: 0x1C359, size: 0x8, addend: 0x0, symName: __ZNSt3__114__split_bufferIP6AlumnoRNS_9allocatorIS2_EEE21_ConstructTransactionD1B8ue170006Ev, symObjAddr: 0xE73C, symBinAddr: 0x100011858, symSize: 0x2C }
  - { offsetInCU: 0x1C383, offset: 0x1C383, size: 0x8, addend: 0x0, symName: __ZNSt3__114__split_bufferIP6AlumnoRNS_9allocatorIS2_EEE21_ConstructTransactionC2B8ue170006EPPS2_m, symObjAddr: 0xE768, symBinAddr: 0x100011884, symSize: 0x44 }
  - { offsetInCU: 0x1C3C9, offset: 0x1C3C9, size: 0x8, addend: 0x0, symName: __ZNSt3__19allocatorIP6AlumnoE9constructB8ue170006IS2_JS2_EEEvPT_DpOT0_, symObjAddr: 0xE7AC, symBinAddr: 0x1000118C8, symSize: 0x28 }
  - { offsetInCU: 0x1C41F, offset: 0x1C41F, size: 0x8, addend: 0x0, symName: __ZNSt3__117__compressed_pairIPP6AlumnoRNS_9allocatorIS2_EEE6secondB8ue170006Ev, symObjAddr: 0xE7D4, symBinAddr: 0x1000118F0, symSize: 0x28 }
  - { offsetInCU: 0x1C445, offset: 0x1C445, size: 0x8, addend: 0x0, symName: __ZNSt3__122__compressed_pair_elemIRNS_9allocatorIP6AlumnoEELi1ELb0EE5__getB8ue170006Ev, symObjAddr: 0xE7FC, symBinAddr: 0x100011918, symSize: 0x18 }
  - { offsetInCU: 0x1C46B, offset: 0x1C46B, size: 0x8, addend: 0x0, symName: __ZNSt3__114__split_bufferIP6AlumnoRNS_9allocatorIS2_EEE21_ConstructTransactionD2B8ue170006Ev, symObjAddr: 0xE814, symBinAddr: 0x100011930, symSize: 0x20 }
  - { offsetInCU: 0x1C495, offset: 0x1C495, size: 0x8, addend: 0x0, symName: __ZNKSt3__113move_iteratorIPP6AlumnoE4baseB8ue170006Ev, symObjAddr: 0xE8AC, symBinAddr: 0x1000119C8, symSize: 0x18 }
  - { offsetInCU: 0x1C4BB, offset: 0x1C4BB, size: 0x8, addend: 0x0, symName: __ZNSt3__113move_iteratorIPP6AlumnoEC2B8ue170006ES3_, symObjAddr: 0xE8C4, symBinAddr: 0x1000119E0, symSize: 0x20 }
  - { offsetInCU: 0x1C4F3, offset: 0x1C4F3, size: 0x8, addend: 0x0, symName: __ZNSt3__19allocatorIP6AlumnoE9constructB8ue170006IS2_JRKS2_EEEvPT_DpOT0_, symObjAddr: 0xE8E4, symBinAddr: 0x100011A00, symSize: 0x28 }
  - { offsetInCU: 0x1C549, offset: 0x1C549, size: 0x8, addend: 0x0, symName: __ZNSt3__19allocatorI6AlumnoE8allocateB8ue170006Em, symObjAddr: 0xE90C, symBinAddr: 0x100011A28, symSize: 0x8C }
  - { offsetInCU: 0x1C587, offset: 0x1C587, size: 0x8, addend: 0x0, symName: __ZNSt3__116allocator_traitsINS_9allocatorI6AlumnoEEE8max_sizeB8ue170006IS3_vEEmRKS3_, symObjAddr: 0xE998, symBinAddr: 0x100011AB4, symSize: 0x24 }
  - { offsetInCU: 0x1C5B5, offset: 0x1C5B5, size: 0x8, addend: 0x0, symName: __ZNKSt3__19allocatorI6AlumnoE8max_sizeB8ue170006Ev, symObjAddr: 0xE9BC, symBinAddr: 0x100011AD8, symSize: 0x20 }
  - { offsetInCU: 0x1C5DB, offset: 0x1C5DB, size: 0x8, addend: 0x0, symName: __ZNKSt3__123__move_backward_trivialclB8ue170006IP6AlumnoS3_Li0EEENS_4pairIPT_PT0_EES6_S6_S8_, symObjAddr: 0xEB58, symBinAddr: 0x100011C74, symSize: 0x48 }
  - { offsetInCU: 0x1C643, offset: 0x1C643, size: 0x8, addend: 0x0, symName: __ZNSt3__114__split_bufferIP6AlumnoRNS_9allocatorIS2_EEEC2EmmS5_, symObjAddr: 0xEC68, symBinAddr: 0x100011D84, symSize: 0xD4 }
  - { offsetInCU: 0x1C6B6, offset: 0x1C6B6, size: 0x8, addend: 0x0, symName: __ZNSt3__117__compressed_pairIPP6AlumnoRNS_9allocatorIS2_EEEC1B8ue170006IDnS6_EEOT_OT0_, symObjAddr: 0xED3C, symBinAddr: 0x100011E58, symSize: 0x3C }
  - { offsetInCU: 0x1C70E, offset: 0x1C70E, size: 0x8, addend: 0x0, symName: __ZNSt3__117__compressed_pairIPP6AlumnoRNS_9allocatorIS2_EEEC2B8ue170006IDnS6_EEOT_OT0_, symObjAddr: 0xEDB8, symBinAddr: 0x100011ED4, symSize: 0x48 }
  - { offsetInCU: 0x1C766, offset: 0x1C766, size: 0x8, addend: 0x0, symName: __ZNSt3__122__compressed_pair_elemIRNS_9allocatorIP6AlumnoEELi1ELb0EEC2B8ue170006IS5_vEEOT_, symObjAddr: 0xEE00, symBinAddr: 0x100011F1C, symSize: 0x20 }
  - { offsetInCU: 0x1C7A8, offset: 0x1C7A8, size: 0x8, addend: 0x0, symName: __ZNSt3__19allocatorIP6AlumnoE8allocateB8ue170006Em, symObjAddr: 0xEE20, symBinAddr: 0x100011F3C, symSize: 0x84 }
  - { offsetInCU: 0x1C7E6, offset: 0x1C7E6, size: 0x8, addend: 0x0, symName: __ZNSt3__116allocator_traitsINS_9allocatorIP6AlumnoEEE8max_sizeB8ue170006IS4_vEEmRKS4_, symObjAddr: 0xEEA4, symBinAddr: 0x100011FC0, symSize: 0x24 }
  - { offsetInCU: 0x1C814, offset: 0x1C814, size: 0x8, addend: 0x0, symName: __ZNKSt3__19allocatorIP6AlumnoE8max_sizeB8ue170006Ev, symObjAddr: 0xEEC8, symBinAddr: 0x100011FE4, symSize: 0x14 }
  - { offsetInCU: 0x1C83A, offset: 0x1C83A, size: 0x8, addend: 0x0, symName: __ZNSt3__122__allocator_destructorINS_9allocatorI6AlumnoEEEC2B8ue170006ERS3_m, symObjAddr: 0xEEDC, symBinAddr: 0x100011FF8, symSize: 0x2C }
  - { offsetInCU: 0x1C880, offset: 0x1C880, size: 0x8, addend: 0x0, symName: __ZNSt3__110unique_ptrIP6AlumnoNS_22__allocator_destructorINS_9allocatorIS1_EEEEEC2B8ue170006ILb1EvEES2_NS_16__dependent_typeINS_27__unique_ptr_deleter_sfinaeIS6_EEXT_EE20__good_rval_ref_typeE, symObjAddr: 0xEF08, symBinAddr: 0x100012024, symSize: 0x5C }
  - { offsetInCU: 0x1C8D1, offset: 0x1C8D1, size: 0x8, addend: 0x0, symName: __ZNSt3__117__compressed_pairIP6AlumnoNS_22__allocator_destructorINS_9allocatorIS1_EEEEEC1B8ue170006IRS2_S6_EEOT_OT0_, symObjAddr: 0xEF64, symBinAddr: 0x100012080, symSize: 0x3C }
  - { offsetInCU: 0x1C929, offset: 0x1C929, size: 0x8, addend: 0x0, symName: __ZNSt3__117__compressed_pairIP6AlumnoNS_22__allocator_destructorINS_9allocatorIS1_EEEEEC2B8ue170006IRS2_S6_EEOT_OT0_, symObjAddr: 0xEFA0, symBinAddr: 0x1000120BC, symSize: 0x48 }
  - { offsetInCU: 0x1C981, offset: 0x1C981, size: 0x8, addend: 0x0, symName: __ZNSt3__122__compressed_pair_elemIP6AlumnoLi0ELb0EEC2B8ue170006IRS2_vEEOT_, symObjAddr: 0xEFE8, symBinAddr: 0x100012104, symSize: 0x24 }
  - { offsetInCU: 0x1C9C3, offset: 0x1C9C3, size: 0x8, addend: 0x0, symName: __ZNSt3__122__compressed_pair_elemINS_22__allocator_destructorINS_9allocatorI6AlumnoEEEELi1ELb0EEC2B8ue170006IS5_vEEOT_, symObjAddr: 0xF00C, symBinAddr: 0x100012128, symSize: 0x24 }
  - { offsetInCU: 0x1CA05, offset: 0x1CA05, size: 0x8, addend: 0x0, symName: __ZNKSt3__117__compressed_pairIP6AlumnoNS_22__allocator_destructorINS_9allocatorIS1_EEEEE5firstB8ue170006Ev, symObjAddr: 0xF030, symBinAddr: 0x10001214C, symSize: 0x24 }
  - { offsetInCU: 0x1CA2B, offset: 0x1CA2B, size: 0x8, addend: 0x0, symName: __ZNKSt3__122__compressed_pair_elemIP6AlumnoLi0ELb0EE5__getB8ue170006Ev, symObjAddr: 0xF054, symBinAddr: 0x100012170, symSize: 0x14 }
  - { offsetInCU: 0x1CA51, offset: 0x1CA51, size: 0x8, addend: 0x0, symName: __ZNSt3__117__compressed_pairIP6AlumnoNS_22__allocator_destructorINS_9allocatorIS1_EEEEE5firstB8ue170006Ev, symObjAddr: 0xF068, symBinAddr: 0x100012184, symSize: 0x24 }
  - { offsetInCU: 0x1CA77, offset: 0x1CA77, size: 0x8, addend: 0x0, symName: __ZNSt3__122__compressed_pair_elemIP6AlumnoLi0ELb0EE5__getB8ue170006Ev, symObjAddr: 0xF08C, symBinAddr: 0x1000121A8, symSize: 0x14 }
  - { offsetInCU: 0x1CA9D, offset: 0x1CA9D, size: 0x8, addend: 0x0, symName: __ZNSt3__117__compressed_pairIPP6AlumnoNS_9allocatorIS2_EEE5firstB8ue170006Ev, symObjAddr: 0xF0A0, symBinAddr: 0x1000121BC, symSize: 0x24 }
  - { offsetInCU: 0x1CAC3, offset: 0x1CAC3, size: 0x8, addend: 0x0, symName: __ZNSt3__122__compressed_pair_elemIPP6AlumnoLi0ELb0EE5__getB8ue170006Ev, symObjAddr: 0xF0C4, symBinAddr: 0x1000121E0, symSize: 0x14 }
  - { offsetInCU: 0x1CAE9, offset: 0x1CAE9, size: 0x8, addend: 0x0, symName: __ZNSt3__117__compressed_pairIPP6AlumnoRNS_9allocatorIS2_EEE5firstB8ue170006Ev, symObjAddr: 0xF0D8, symBinAddr: 0x1000121F4, symSize: 0x24 }
  - { offsetInCU: 0x1CB0F, offset: 0x1CB0F, size: 0x8, addend: 0x0, symName: __ZNSt3__110unique_ptrIP6AlumnoNS_22__allocator_destructorINS_9allocatorIS1_EEEEED2B8ue170006Ev, symObjAddr: 0xF0FC, symBinAddr: 0x100012218, symSize: 0x30 }
  - { offsetInCU: 0x1CB39, offset: 0x1CB39, size: 0x8, addend: 0x0, symName: __ZNSt3__110unique_ptrIP6AlumnoNS_22__allocator_destructorINS_9allocatorIS1_EEEEE5resetB8ue170006ES2_, symObjAddr: 0xF12C, symBinAddr: 0x100012248, symSize: 0x78 }
  - { offsetInCU: 0x1CB7D, offset: 0x1CB7D, size: 0x8, addend: 0x0, symName: __ZNSt3__117__compressed_pairIP6AlumnoNS_22__allocator_destructorINS_9allocatorIS1_EEEEE6secondB8ue170006Ev, symObjAddr: 0xF1A4, symBinAddr: 0x1000122C0, symSize: 0x28 }
  - { offsetInCU: 0x1CBA3, offset: 0x1CBA3, size: 0x8, addend: 0x0, symName: __ZNSt3__122__allocator_destructorINS_9allocatorI6AlumnoEEEclB8ue170006EPS2_, symObjAddr: 0xF1CC, symBinAddr: 0x1000122E8, symSize: 0x34 }
  - { offsetInCU: 0x1CBD7, offset: 0x1CBD7, size: 0x8, addend: 0x0, symName: __ZNSt3__122__compressed_pair_elemINS_22__allocator_destructorINS_9allocatorI6AlumnoEEEELi1ELb0EE5__getB8ue170006Ev, symObjAddr: 0xF200, symBinAddr: 0x10001231C, symSize: 0x14 }
  - { offsetInCU: 0x1CBFD, offset: 0x1CBFD, size: 0x8, addend: 0x0, symName: __ZNSt3__114__split_bufferIP6AlumnoRNS_9allocatorIS2_EEED2Ev, symObjAddr: 0xF214, symBinAddr: 0x100012330, symSize: 0x80 }
  - { offsetInCU: 0x1CC29, offset: 0x1CC29, size: 0x8, addend: 0x0, symName: __ZNSt3__114__split_bufferIP6AlumnoRNS_9allocatorIS2_EEE5clearB8ue170006Ev, symObjAddr: 0xF294, symBinAddr: 0x1000123B0, symSize: 0x28 }
  - { offsetInCU: 0x1CC4F, offset: 0x1CC4F, size: 0x8, addend: 0x0, symName: __ZNKSt3__114__split_bufferIP6AlumnoRNS_9allocatorIS2_EEE8capacityB8ue170006Ev, symObjAddr: 0xF2BC, symBinAddr: 0x1000123D8, symSize: 0x40 }
  - { offsetInCU: 0x1CC75, offset: 0x1CC75, size: 0x8, addend: 0x0, symName: __ZNSt3__114__split_bufferIP6AlumnoRNS_9allocatorIS2_EEE17__destruct_at_endB8ue170006EPS2_, symObjAddr: 0xF2FC, symBinAddr: 0x100012418, symSize: 0x2C }
  - { offsetInCU: 0x1CCA9, offset: 0x1CCA9, size: 0x8, addend: 0x0, symName: __ZNSt3__114__split_bufferIP6AlumnoRNS_9allocatorIS2_EEE17__destruct_at_endB8ue170006EPS2_NS_17integral_constantIbLb0EEE, symObjAddr: 0xF328, symBinAddr: 0x100012444, symSize: 0x94 }
  - { offsetInCU: 0x1CCE9, offset: 0x1CCE9, size: 0x8, addend: 0x0, symName: __ZNKSt3__114__split_bufferIP6AlumnoRNS_9allocatorIS2_EEE9__end_capB8ue170006Ev, symObjAddr: 0xF3BC, symBinAddr: 0x1000124D8, symSize: 0x28 }
  - { offsetInCU: 0x1CD0F, offset: 0x1CD0F, size: 0x8, addend: 0x0, symName: __ZNKSt3__117__compressed_pairIPP6AlumnoRNS_9allocatorIS2_EEE5firstB8ue170006Ev, symObjAddr: 0xF3E4, symBinAddr: 0x100012500, symSize: 0x24 }
  - { offsetInCU: 0x1CD35, offset: 0x1CD35, size: 0x8, addend: 0x0, symName: __ZNSt3__19allocatorI6AlumnoE9constructB8ue170006IS1_JRKS1_EEEvPT_DpOT0_, symObjAddr: 0xF408, symBinAddr: 0x100012524, symSize: 0x30 }
  - { offsetInCU: 0x1CD8B, offset: 0x1CD8B, size: 0x8, addend: 0x0, symName: __ZNSt3__15dequeI6AlumnoNS_9allocatorIS1_EEE5frontEv, symObjAddr: 0xF438, symBinAddr: 0x100012554, symSize: 0x58 }
  - { offsetInCU: 0x1CDB3, offset: 0x1CDB3, size: 0x8, addend: 0x0, symName: __ZNSt3__16__treeINS_12basic_stringIcNS_11char_traitsIcEENS_9allocatorIcEEEENS_4lessIS6_EENS4_IS6_EEE15__insert_uniqueB8ue170006ERKS6_, symObjAddr: 0xF490, symBinAddr: 0x1000125AC, symSize: 0x50 }
  - { offsetInCU: 0x1CDE8, offset: 0x1CDE8, size: 0x8, addend: 0x0, symName: __ZNSt3__14pairINS_21__tree_const_iteratorINS_12basic_stringIcNS_11char_traitsIcEENS_9allocatorIcEEEEPNS_11__tree_nodeIS7_PvEElEEbEC1B8ue170006INS_15__tree_iteratorIS7_SB_lEEbEERKNS0_IT_T0_EE, symObjAddr: 0xF4E0, symBinAddr: 0x1000125FC, symSize: 0x34 }
  - { offsetInCU: 0x1CE32, offset: 0x1CE32, size: 0x8, addend: 0x0, symName: __ZNSt3__16__treeINS_12basic_stringIcNS_11char_traitsIcEENS_9allocatorIcEEEENS_4lessIS6_EENS4_IS6_EEE25__emplace_unique_key_argsIS6_JRKS6_EEENS_4pairINS_15__tree_iteratorIS6_PNS_11__tree_nodeIS6_PvEElEEbEERKT_DpOT0_, symObjAddr: 0xF514, symBinAddr: 0x100012630, symSize: 0xF0 }
  - { offsetInCU: 0x1CEDE, offset: 0x1CEDE, size: 0x8, addend: 0x0, symName: __ZNSt3__14pairINS_21__tree_const_iteratorINS_12basic_stringIcNS_11char_traitsIcEENS_9allocatorIcEEEEPNS_11__tree_nodeIS7_PvEElEEbEC2B8ue170006INS_15__tree_iteratorIS7_SB_lEEbEERKNS0_IT_T0_EE, symObjAddr: 0xF604, symBinAddr: 0x100012720, symSize: 0x50 }
  - { offsetInCU: 0x1CF28, offset: 0x1CF28, size: 0x8, addend: 0x0, symName: __ZNSt3__15dequeI6AlumnoNS_9allocatorIS1_EEE9pop_frontEv, symObjAddr: 0xF654, symBinAddr: 0x100012770, symSize: 0xDC }
  - { offsetInCU: 0x1CF7D, offset: 0x1CF7D, size: 0x8, addend: 0x0, symName: __ZNKSt3__15dequeI6AlumnoNS_9allocatorIS1_EEE23__annotate_shrink_frontB8ue170006Emm, symObjAddr: 0xF730, symBinAddr: 0x10001284C, symSize: 0x70 }
  - { offsetInCU: 0x1CFC1, offset: 0x1CFC1, size: 0x8, addend: 0x0, symName: __ZNSt3__15dequeI6AlumnoNS_9allocatorIS1_EEE26__maybe_remove_front_spareB8ue170006Eb, symObjAddr: 0xF7A0, symBinAddr: 0x1000128BC, symSize: 0xEC }
  - { offsetInCU: 0x1CFF6, offset: 0x1CFF6, size: 0x8, addend: 0x0, symName: __ZNKSt3__15dequeI6AlumnoNS_9allocatorIS1_EEE20__front_spare_blocksB8ue170006Ev, symObjAddr: 0xF88C, symBinAddr: 0x1000129A8, symSize: 0x2C }
  - { offsetInCU: 0x1D01C, offset: 0x1D01C, size: 0x8, addend: 0x0, symName: __ZNSt3__15dequeI6AlumnoNS_9allocatorIS1_EEEaSERKS4_, symObjAddr: 0xF8B8, symBinAddr: 0x1000129D4, symSize: 0x90 }
  - { offsetInCU: 0x1D053, offset: 0x1D053, size: 0x8, addend: 0x0, symName: __ZNSt3__15dequeI6AlumnoNS_9allocatorIS1_EEE19__copy_assign_allocB8ue170006ERKS4_, symObjAddr: 0xF948, symBinAddr: 0x100012A64, symSize: 0x2C }
  - { offsetInCU: 0x1D088, offset: 0x1D088, size: 0x8, addend: 0x0, symName: __ZNSt3__15dequeI6AlumnoNS_9allocatorIS1_EEE6assignINS_16__deque_iteratorIS1_PKS1_RS7_PKS8_lLl28EEEEEvT_SD_PNS_9enable_ifIXsr37__has_random_access_iterator_categoryISD_EE5valueEvE4typeE, symObjAddr: 0xF974, symBinAddr: 0x100012A90, symSize: 0x68 }
  - { offsetInCU: 0x1D0E3, offset: 0x1D0E3, size: 0x8, addend: 0x0, symName: __ZNKSt3__15dequeI6AlumnoNS_9allocatorIS1_EEE5beginB8ue170006Ev, symObjAddr: 0xF9DC, symBinAddr: 0x100012AF8, symSize: 0xB0 }
  - { offsetInCU: 0x1D118, offset: 0x1D118, size: 0x8, addend: 0x0, symName: __ZNKSt3__15dequeI6AlumnoNS_9allocatorIS1_EEE3endB8ue170006Ev, symObjAddr: 0xFA8C, symBinAddr: 0x100012BA8, symSize: 0xC4 }
  - { offsetInCU: 0x1D15C, offset: 0x1D15C, size: 0x8, addend: 0x0, symName: __ZNSt3__15dequeI6AlumnoNS_9allocatorIS1_EEE19__copy_assign_allocB8ue170006ERKS4_NS_17integral_constantIbLb0EEE, symObjAddr: 0xFB50, symBinAddr: 0x100012C6C, symSize: 0x14 }
  - { offsetInCU: 0x1D19A, offset: 0x1D19A, size: 0x8, addend: 0x0, symName: __ZNSt3__15dequeI6AlumnoNS_9allocatorIS1_EEE32__assign_with_size_random_accessB8ue170006INS_16__deque_iteratorIS1_PKS1_RS7_PKS8_lLl28EEEEEvT_l, symObjAddr: 0xFB64, symBinAddr: 0x100012C80, symSize: 0x158 }
  - { offsetInCU: 0x1D206, offset: 0x1D206, size: 0x8, addend: 0x0, symName: __ZNKSt3__116__deque_iteratorI6AlumnoPKS1_RS2_PKS3_lLl28EEplB8ue170006El, symObjAddr: 0xFD6C, symBinAddr: 0x100012E88, symSize: 0x40 }
  - { offsetInCU: 0x1D24A, offset: 0x1D24A, size: 0x8, addend: 0x0, symName: __ZNSt3__15dequeI6AlumnoNS_9allocatorIS1_EEE18__append_with_sizeB8ue170006INS_16__deque_iteratorIS1_PKS1_RS7_PKS8_lLl28EEEEEvT_m, symObjAddr: 0xFE24, symBinAddr: 0x100012F40, symSize: 0x224 }
  - { offsetInCU: 0x1D31B, offset: 0x1D31B, size: 0x8, addend: 0x0, symName: __ZNSt3__15dequeI6AlumnoNS_9allocatorIS1_EEE14__erase_to_endENS_16__deque_iteratorIS1_PKS1_RS6_PKS7_lLl28EEE, symObjAddr: 0x10048, symBinAddr: 0x100013164, symSize: 0x194 }
  - { offsetInCU: 0x1D3EF, offset: 0x1D3EF, size: 0x8, addend: 0x0, symName: __ZNSt3__116__deque_iteratorI6AlumnoPKS1_RS2_PKS3_lLl28EEC1B8ue170006IPS1_RS1_PS9_EERKNS0_IS1_T_T0_T1_lLl28EEEPNS_9enable_ifIXsr14is_convertibleISC_S3_EE5valueEvE4typeE, symObjAddr: 0x10264, symBinAddr: 0x100013380, symSize: 0x3C }
  - { offsetInCU: 0x1D44F, offset: 0x1D44F, size: 0x8, addend: 0x0, symName: __ZNSt3__116__deque_iteratorI6AlumnoPKS1_RS2_PKS3_lLl28EEpLB8ue170006El, symObjAddr: 0x102A0, symBinAddr: 0x1000133BC, symSize: 0x120 }
  - { offsetInCU: 0x1D4C9, offset: 0x1D4C9, size: 0x8, addend: 0x0, symName: __ZNKSt3__111__copy_loopINS_17_ClassicAlgPolicyEEclB8ue170006INS_16__deque_iteratorI6AlumnoPKS5_RS6_PKS7_lLl28EEENS4_IS5_PS5_RS5_PSC_lLl28EEELi0EEENS_4pairIT_T0_EESH_SH_SI_, symObjAddr: 0x10638, symBinAddr: 0x100013754, symSize: 0x88 }
  - { offsetInCU: 0x1D54A, offset: 0x1D54A, size: 0x8, addend: 0x0, symName: __ZNSt3__14pairINS_16__deque_iteratorI6AlumnoPKS2_RS3_PKS4_lLl28EEES8_EC1B8ue170006ERKS8_SB_, symObjAddr: 0x1089C, symBinAddr: 0x1000139B8, symSize: 0x3C }
  - { offsetInCU: 0x1D590, offset: 0x1D590, size: 0x8, addend: 0x0, symName: __ZNSt3__14pairINS_16__deque_iteratorI6AlumnoPKS2_RS3_PKS4_lLl28EEES8_EC2B8ue170006ERKS8_SB_, symObjAddr: 0x108D8, symBinAddr: 0x1000139F4, symSize: 0x34 }
  - { offsetInCU: 0x1D5D6, offset: 0x1D5D6, size: 0x8, addend: 0x0, symName: __ZNSt3__118__unwrap_iter_implINS_16__deque_iteratorI6AlumnoPKS2_RS3_PKS4_lLl28EEELb0EE8__unwrapB8ue170006ES8_, symObjAddr: 0x1090C, symBinAddr: 0x100013A28, symSize: 0x24 }
  - { offsetInCU: 0x1D5F9, offset: 0x1D5F9, size: 0x8, addend: 0x0, symName: __ZNSt3__111__copy_loopINS_17_ClassicAlgPolicyEE12_CopySegmentINS_16__deque_iteratorI6AlumnoPKS5_RS6_PKS7_lLl28EEENS4_IS5_PS5_RS5_PSC_lLl28EEEEC1B8ue170006ERSF_, symObjAddr: 0x10AA4, symBinAddr: 0x100013BC0, symSize: 0x34 }
  - { offsetInCU: 0x1D631, offset: 0x1D631, size: 0x8, addend: 0x0, symName: __ZNSt3__127__segmented_iterator_traitsINS_16__deque_iteratorI6AlumnoPKS2_RS3_PKS4_lLl28EEEE9__segmentB8ue170006ES8_, symObjAddr: 0x10B10, symBinAddr: 0x100013C2C, symSize: 0x18 }
  - { offsetInCU: 0x1D655, offset: 0x1D655, size: 0x8, addend: 0x0, symName: __ZNSt3__111__copy_loopINS_17_ClassicAlgPolicyEE12_CopySegmentINS_16__deque_iteratorI6AlumnoPKS5_RS6_PKS7_lLl28EEENS4_IS5_PS5_RS5_PSC_lLl28EEEEclB8ue170006ES7_S7_, symObjAddr: 0x10B28, symBinAddr: 0x100013C44, symSize: 0x68 }
  - { offsetInCU: 0x1D697, offset: 0x1D697, size: 0x8, addend: 0x0, symName: __ZNSt3__127__segmented_iterator_traitsINS_16__deque_iteratorI6AlumnoPKS2_RS3_PKS4_lLl28EEEE7__localB8ue170006ES8_, symObjAddr: 0x10B90, symBinAddr: 0x100013CAC, symSize: 0x18 }
  - { offsetInCU: 0x1D6BB, offset: 0x1D6BB, size: 0x8, addend: 0x0, symName: __ZNSt3__127__segmented_iterator_traitsINS_16__deque_iteratorI6AlumnoPKS2_RS3_PKS4_lLl28EEEE5__endB8ue170006ES7_, symObjAddr: 0x10BA8, symBinAddr: 0x100013CC4, symSize: 0x1C }
  - { offsetInCU: 0x1D6DF, offset: 0x1D6DF, size: 0x8, addend: 0x0, symName: __ZNSt3__127__segmented_iterator_traitsINS_16__deque_iteratorI6AlumnoPKS2_RS3_PKS4_lLl28EEEE7__beginB8ue170006ES7_, symObjAddr: 0x10BC4, symBinAddr: 0x100013CE0, symSize: 0x18 }
  - { offsetInCU: 0x1D71C, offset: 0x1D71C, size: 0x8, addend: 0x0, symName: __ZNKSt3__111__copy_loopINS_17_ClassicAlgPolicyEEclB8ue170006IPK6AlumnoNS_16__deque_iteratorIS4_PS4_RS4_PS8_lLl28EEELi0EEENS_4pairIT_T0_EESD_SD_SE_, symObjAddr: 0x10DB4, symBinAddr: 0x100013ED0, symSize: 0x16C }
  - { offsetInCU: 0x1D7F4, offset: 0x1D7F4, size: 0x8, addend: 0x0, symName: __ZNSt3__14pairIPK6AlumnoS3_EC1B8ue170006ERKS3_S6_, symObjAddr: 0x10FE0, symBinAddr: 0x1000140FC, symSize: 0x3C }
  - { offsetInCU: 0x1D83A, offset: 0x1D83A, size: 0x8, addend: 0x0, symName: __ZNSt3__14pairIPK6AlumnoS3_EC2B8ue170006ERKS3_S6_, symObjAddr: 0x1101C, symBinAddr: 0x100014138, symSize: 0x34 }
  - { offsetInCU: 0x1D880, offset: 0x1D880, size: 0x8, addend: 0x0, symName: __ZNSt3__118__unwrap_iter_implIPK6AlumnoLb1EE8__unwrapB8ue170006ES3_, symObjAddr: 0x11050, symBinAddr: 0x10001416C, symSize: 0x24 }
  - { offsetInCU: 0x1D8A3, offset: 0x1D8A3, size: 0x8, addend: 0x0, symName: __ZNSt3__127__segmented_iterator_traitsINS_16__deque_iteratorI6AlumnoPS2_RS2_PS3_lLl28EEEE7__localB8ue170006ES6_, symObjAddr: 0x11088, symBinAddr: 0x1000141A4, symSize: 0x18 }
  - { offsetInCU: 0x1D8C7, offset: 0x1D8C7, size: 0x8, addend: 0x0, symName: __ZNSt3__127__segmented_iterator_traitsINS_16__deque_iteratorI6AlumnoPS2_RS2_PS3_lLl28EEEE9__segmentB8ue170006ES6_, symObjAddr: 0x110A0, symBinAddr: 0x1000141BC, symSize: 0x18 }
  - { offsetInCU: 0x1D8EB, offset: 0x1D8EB, size: 0x8, addend: 0x0, symName: __ZNSt3__127__segmented_iterator_traitsINS_16__deque_iteratorI6AlumnoPS2_RS2_PS3_lLl28EEEE5__endB8ue170006ES5_, symObjAddr: 0x110B8, symBinAddr: 0x1000141D4, symSize: 0x1C }
  - { offsetInCU: 0x1D90F, offset: 0x1D90F, size: 0x8, addend: 0x0, symName: __ZNSt3__127__segmented_iterator_traitsINS_16__deque_iteratorI6AlumnoPS2_RS2_PS3_lLl28EEEE9__composeB8ue170006ES5_S3_, symObjAddr: 0x11144, symBinAddr: 0x100014260, symSize: 0x84 }
  - { offsetInCU: 0x1D942, offset: 0x1D942, size: 0x8, addend: 0x0, symName: __ZNSt3__127__segmented_iterator_traitsINS_16__deque_iteratorI6AlumnoPS2_RS2_PS3_lLl28EEEE7__beginB8ue170006ES5_, symObjAddr: 0x111C8, symBinAddr: 0x1000142E4, symSize: 0x18 }
  - { offsetInCU: 0x1D970, offset: 0x1D970, size: 0x8, addend: 0x0, symName: __ZNKSt3__16__lessIvvEclB8ue170006IllEEbRKT_RKT0_, symObjAddr: 0x11234, symBinAddr: 0x100014350, symSize: 0x34 }
  - { offsetInCU: 0x1D9DD, offset: 0x1D9DD, size: 0x8, addend: 0x0, symName: __ZNKSt3__111__copy_loopINS_17_ClassicAlgPolicyEEclB8ue170006IPK6AlumnoS6_PS4_EENS_4pairIT_T1_EES9_T0_SA_, symObjAddr: 0x11360, symBinAddr: 0x10001447C, symSize: 0x88 }
  - { offsetInCU: 0x1DA48, offset: 0x1DA48, size: 0x8, addend: 0x0, symName: __ZN6AlumnoaSERKS_, symObjAddr: 0x11494, symBinAddr: 0x1000145B0, symSize: 0x98 }
  - { offsetInCU: 0x1DA79, offset: 0x1DA79, size: 0x8, addend: 0x0, symName: __ZNSt3__13setINS_12basic_stringIcNS_11char_traitsIcEENS_9allocatorIcEEEENS_4lessIS6_EENS4_IS6_EEEaSB8ue170006ERKSA_, symObjAddr: 0x1152C, symBinAddr: 0x100014648, symSize: 0x34 }
  - { offsetInCU: 0x1DAAE, offset: 0x1DAAE, size: 0x8, addend: 0x0, symName: __ZNSt3__16__treeINS_12basic_stringIcNS_11char_traitsIcEENS_9allocatorIcEEEENS_4lessIS6_EENS4_IS6_EEEaSERKSA_, symObjAddr: 0x11560, symBinAddr: 0x10001467C, symSize: 0x8C }
  - { offsetInCU: 0x1DAE5, offset: 0x1DAE5, size: 0x8, addend: 0x0, symName: __ZNSt3__16__treeINS_12basic_stringIcNS_11char_traitsIcEENS_9allocatorIcEEEENS_4lessIS6_EENS4_IS6_EEE19__copy_assign_allocB8ue170006ERKSA_, symObjAddr: 0x115EC, symBinAddr: 0x100014708, symSize: 0x2C }
  - { offsetInCU: 0x1DB1A, offset: 0x1DB1A, size: 0x8, addend: 0x0, symName: __ZNSt3__16__treeINS_12basic_stringIcNS_11char_traitsIcEENS_9allocatorIcEEEENS_4lessIS6_EENS4_IS6_EEE14__assign_multiINS_21__tree_const_iteratorIS6_PNS_11__tree_nodeIS6_PvEElEEEEvT_SI_, symObjAddr: 0x11618, symBinAddr: 0x100014734, symSize: 0x178 }
  - { offsetInCU: 0x1DB7E, offset: 0x1DB7E, size: 0x8, addend: 0x0, symName: __ZNSt3__16__treeINS_12basic_stringIcNS_11char_traitsIcEENS_9allocatorIcEEEENS_4lessIS6_EENS4_IS6_EEE19__copy_assign_allocB8ue170006ERKSA_NS_17integral_constantIbLb0EEE, symObjAddr: 0x11790, symBinAddr: 0x1000148AC, symSize: 0x14 }
  - { offsetInCU: 0x1DBDA, offset: 0x1DBDA, size: 0x8, addend: 0x0, symName: __ZNSt3__16__treeINS_12basic_stringIcNS_11char_traitsIcEENS_9allocatorIcEEEENS_4lessIS6_EENS4_IS6_EEE18_DetachedTreeCacheC1B8ue170006EPSA_, symObjAddr: 0x117A4, symBinAddr: 0x1000148C0, symSize: 0x34 }
  - { offsetInCU: 0x1DC13, offset: 0x1DC13, size: 0x8, addend: 0x0, symName: __ZNKSt3__16__treeINS_12basic_stringIcNS_11char_traitsIcEENS_9allocatorIcEEEENS_4lessIS6_EENS4_IS6_EEE18_DetachedTreeCache5__getB8ue170006Ev, symObjAddr: 0x117D8, symBinAddr: 0x1000148F4, symSize: 0x18 }
  - { offsetInCU: 0x1DC39, offset: 0x1DC39, size: 0x8, addend: 0x0, symName: __ZNSt3__16__treeINS_12basic_stringIcNS_11char_traitsIcEENS_9allocatorIcEEEENS_4lessIS6_EENS4_IS6_EEE19__node_insert_multiEPNS_11__tree_nodeIS6_PvEE, symObjAddr: 0x117F0, symBinAddr: 0x10001490C, symSize: 0x70 }
  - { offsetInCU: 0x1DC8E, offset: 0x1DC8E, size: 0x8, addend: 0x0, symName: __ZNSt3__16__treeINS_12basic_stringIcNS_11char_traitsIcEENS_9allocatorIcEEEENS_4lessIS6_EENS4_IS6_EEE18_DetachedTreeCache9__advanceB8ue170006Ev, symObjAddr: 0x11860, symBinAddr: 0x10001497C, symSize: 0x58 }
  - { offsetInCU: 0x1DCB4, offset: 0x1DCB4, size: 0x8, addend: 0x0, symName: __ZNSt3__16__treeINS_12basic_stringIcNS_11char_traitsIcEENS_9allocatorIcEEEENS_4lessIS6_EENS4_IS6_EEE18_DetachedTreeCacheD1B8ue170006Ev, symObjAddr: 0x118B8, symBinAddr: 0x1000149D4, symSize: 0x2C }
  - { offsetInCU: 0x1DCDE, offset: 0x1DCDE, size: 0x8, addend: 0x0, symName: __ZNSt3__16__treeINS_12basic_stringIcNS_11char_traitsIcEENS_9allocatorIcEEEENS_4lessIS6_EENS4_IS6_EEE14__insert_multiB8ue170006IRKS6_EENS_15__tree_iteratorIS6_PNS_11__tree_nodeIS6_PvEElEEOT_, symObjAddr: 0x118E4, symBinAddr: 0x100014A00, symSize: 0x34 }
  - { offsetInCU: 0x1DD1C, offset: 0x1DD1C, size: 0x8, addend: 0x0, symName: __ZNSt3__122__tree_key_value_typesINS_12basic_stringIcNS_11char_traitsIcEENS_9allocatorIcEEEEE11__get_valueB8ue170006ERKS6_, symObjAddr: 0x11918, symBinAddr: 0x100014A34, symSize: 0x14 }
  - { offsetInCU: 0x1DD40, offset: 0x1DD40, size: 0x8, addend: 0x0, symName: __ZNSt3__16__treeINS_12basic_stringIcNS_11char_traitsIcEENS_9allocatorIcEEEENS_4lessIS6_EENS4_IS6_EEE18_DetachedTreeCacheC2B8ue170006EPSA_, symObjAddr: 0x1192C, symBinAddr: 0x100014A48, symSize: 0x4C }
  - { offsetInCU: 0x1DD79, offset: 0x1DD79, size: 0x8, addend: 0x0, symName: __ZNSt3__16__treeINS_12basic_stringIcNS_11char_traitsIcEENS_9allocatorIcEEEENS_4lessIS6_EENS4_IS6_EEE18_DetachedTreeCache18__detach_from_treeEPSA_, symObjAddr: 0x11978, symBinAddr: 0x100014A94, symSize: 0xA0 }
  - { offsetInCU: 0x1DDAE, offset: 0x1DDAE, size: 0x8, addend: 0x0, symName: __ZNSt3__16__treeINS_12basic_stringIcNS_11char_traitsIcEENS_9allocatorIcEEEENS_4lessIS6_EENS4_IS6_EEE16__find_leaf_highERPNS_15__tree_end_nodeIPNS_16__tree_node_baseIPvEEEERKS6_, symObjAddr: 0x11A18, symBinAddr: 0x100014B34, symSize: 0x124 }
  - { offsetInCU: 0x1DE03, offset: 0x1DE03, size: 0x8, addend: 0x0, symName: __ZNSt3__16__treeINS_12basic_stringIcNS_11char_traitsIcEENS_9allocatorIcEEEENS_4lessIS6_EENS4_IS6_EEE18_DetachedTreeCache13__detach_nextEPNS_11__tree_nodeIS6_PvEE, symObjAddr: 0x11B3C, symBinAddr: 0x100014C58, symSize: 0xF0 }
  - { offsetInCU: 0x1DE29, offset: 0x1DE29, size: 0x8, addend: 0x0, symName: __ZNSt3__16__treeINS_12basic_stringIcNS_11char_traitsIcEENS_9allocatorIcEEEENS_4lessIS6_EENS4_IS6_EEE18_DetachedTreeCacheD2B8ue170006Ev, symObjAddr: 0x11C9C, symBinAddr: 0x100014DB8, symSize: 0x9C }
  - { offsetInCU: 0x1DE53, offset: 0x1DE53, size: 0x8, addend: 0x0, symName: __ZNSt3__16__treeINS_12basic_stringIcNS_11char_traitsIcEENS_9allocatorIcEEEENS_4lessIS6_EENS4_IS6_EEE15__emplace_multiIJRKS6_EEENS_15__tree_iteratorIS6_PNS_11__tree_nodeIS6_PvEElEEDpOT_, symObjAddr: 0x11D38, symBinAddr: 0x100014E54, symSize: 0xAC }
  - { offsetInCU: 0x1DEC2, offset: 0x1DEC2, size: 0x8, addend: 0x0, symName: __ZNSt3__118__unwrap_iter_implIP6AlumnoLb1EE8__unwrapB8ue170006ES2_, symObjAddr: 0x11DE4, symBinAddr: 0x100014F00, symSize: 0x24 }
  - { offsetInCU: 0x1DEE5, offset: 0x1DEE5, size: 0x8, addend: 0x0, symName: __ZNSt3__14pairIPK6AlumnoPS1_EC1B8ue170006ERKS3_RKS4_, symObjAddr: 0x11E08, symBinAddr: 0x100014F24, symSize: 0x3C }
  - { offsetInCU: 0x1DF2B, offset: 0x1DF2B, size: 0x8, addend: 0x0, symName: __ZNSt3__14pairIPK6AlumnoPS1_EC2B8ue170006ERKS3_RKS4_, symObjAddr: 0x11E44, symBinAddr: 0x100014F60, symSize: 0x34 }
  - { offsetInCU: 0x1DF71, offset: 0x1DF71, size: 0x8, addend: 0x0, symName: __ZNSt3__118__unwrap_iter_implIP6AlumnoLb1EE8__rewrapB8ue170006ES2_S2_, symObjAddr: 0x11E78, symBinAddr: 0x100014F94, symSize: 0x58 }
  - { offsetInCU: 0x1DFA2, offset: 0x1DFA2, size: 0x8, addend: 0x0, symName: __ZNSt3__14pairIPK6AlumnoNS_16__deque_iteratorIS1_PS1_RS1_PS5_lLl28EEEEC1B8ue170006ERKS3_RKS8_, symObjAddr: 0x11ED0, symBinAddr: 0x100014FEC, symSize: 0x3C }
  - { offsetInCU: 0x1DFE8, offset: 0x1DFE8, size: 0x8, addend: 0x0, symName: __ZNSt3__14pairIPK6AlumnoNS_16__deque_iteratorIS1_PS1_RS1_PS5_lLl28EEEEC2B8ue170006ERKS3_RKS8_, symObjAddr: 0x11F0C, symBinAddr: 0x100015028, symSize: 0x34 }
  - { offsetInCU: 0x1E02E, offset: 0x1E02E, size: 0x8, addend: 0x0, symName: __ZNSt3__118__unwrap_iter_implIPK6AlumnoLb1EE8__rewrapB8ue170006ES3_S3_, symObjAddr: 0x11F90, symBinAddr: 0x1000150AC, symSize: 0x58 }
  - { offsetInCU: 0x1E05F, offset: 0x1E05F, size: 0x8, addend: 0x0, symName: __ZNSt3__111__copy_loopINS_17_ClassicAlgPolicyEE12_CopySegmentINS_16__deque_iteratorI6AlumnoPKS5_RS6_PKS7_lLl28EEENS4_IS5_PS5_RS5_PSC_lLl28EEEEC2B8ue170006ERSF_, symObjAddr: 0x11FE8, symBinAddr: 0x100015104, symSize: 0x20 }
  - { offsetInCU: 0x1E097, offset: 0x1E097, size: 0x8, addend: 0x0, symName: __ZNSt3__14pairINS_16__deque_iteratorI6AlumnoPKS2_RS3_PKS4_lLl28EEENS1_IS2_PS2_RS2_PS9_lLl28EEEEC1B8ue170006ERKS8_RKSC_, symObjAddr: 0x12008, symBinAddr: 0x100015124, symSize: 0x3C }
  - { offsetInCU: 0x1E0DD, offset: 0x1E0DD, size: 0x8, addend: 0x0, symName: __ZNSt3__14pairINS_16__deque_iteratorI6AlumnoPKS2_RS3_PKS4_lLl28EEENS1_IS2_PS2_RS2_PS9_lLl28EEEEC2B8ue170006ERKS8_RKSC_, symObjAddr: 0x12044, symBinAddr: 0x100015160, symSize: 0x34 }
  - { offsetInCU: 0x1E123, offset: 0x1E123, size: 0x8, addend: 0x0, symName: __ZNSt3__118__unwrap_iter_implINS_16__deque_iteratorI6AlumnoPS2_RS2_PS3_lLl28EEELb0EE8__unwrapB8ue170006ES6_, symObjAddr: 0x12078, symBinAddr: 0x100015194, symSize: 0x24 }
  - { offsetInCU: 0x1E146, offset: 0x1E146, size: 0x8, addend: 0x0, symName: __ZNSt3__118__unwrap_iter_implINS_16__deque_iteratorI6AlumnoPKS2_RS3_PKS4_lLl28EEELb0EE8__rewrapB8ue170006ES8_S8_, symObjAddr: 0x12124, symBinAddr: 0x100015240, symSize: 0x2C }
  - { offsetInCU: 0x1E173, offset: 0x1E173, size: 0x8, addend: 0x0, symName: __ZNSt3__118__unwrap_iter_implINS_16__deque_iteratorI6AlumnoPS2_RS2_PS3_lLl28EEELb0EE8__rewrapB8ue170006ES6_S6_, symObjAddr: 0x12150, symBinAddr: 0x10001526C, symSize: 0x2C }
  - { offsetInCU: 0x1E1A0, offset: 0x1E1A0, size: 0x8, addend: 0x0, symName: __ZNSt3__15dequeI6AlumnoNS_9allocatorIS1_EEE19__add_back_capacityEm, symObjAddr: 0x1217C, symBinAddr: 0x100015298, symSize: 0x644 }
  - { offsetInCU: 0x1E2A1, offset: 0x1E2A1, size: 0x8, addend: 0x0, symName: __ZNKSt3__116__deque_iteratorI6AlumnoPS1_RS1_PS2_lLl28EEplB8ue170006El, symObjAddr: 0x127C0, symBinAddr: 0x1000158DC, symSize: 0x40 }
  - { offsetInCU: 0x1E308, offset: 0x1E308, size: 0x8, addend: 0x0, symName: __ZNSt3__15dequeI6AlumnoNS_9allocatorIS1_EEE13__deque_rangeC1B8ue170006ENS_16__deque_iteratorIS1_PS1_RS1_PS7_lLl28EEESA_, symObjAddr: 0x12800, symBinAddr: 0x10001591C, symSize: 0x4C }
  - { offsetInCU: 0x1E350, offset: 0x1E350, size: 0x8, addend: 0x0, symName: __ZNKSt3__15dequeI6AlumnoNS_9allocatorIS1_EEE13__deque_range5beginB8ue170006Ev, symObjAddr: 0x1284C, symBinAddr: 0x100015968, symSize: 0x24 }
  - { offsetInCU: 0x1E376, offset: 0x1E376, size: 0x8, addend: 0x0, symName: __ZNKSt3__15dequeI6AlumnoNS_9allocatorIS1_EEE13__deque_range3endB8ue170006Ev, symObjAddr: 0x12870, symBinAddr: 0x10001598C, symSize: 0x50 }
  - { offsetInCU: 0x1E39C, offset: 0x1E39C, size: 0x8, addend: 0x0, symName: __ZNKSt3__15dequeI6AlumnoNS_9allocatorIS1_EEE13__deque_rangedeB8ue170006Ev, symObjAddr: 0x128F4, symBinAddr: 0x100015A10, symSize: 0x7C }
  - { offsetInCU: 0x1E3D6, offset: 0x1E3D6, size: 0x8, addend: 0x0, symName: __ZNSt3__15dequeI6AlumnoNS_9allocatorIS1_EEE21_ConstructTransactionC1B8ue170006EPS4_RNS4_19__deque_block_rangeE, symObjAddr: 0x12970, symBinAddr: 0x100015A8C, symSize: 0x3C }
  - { offsetInCU: 0x1E41E, offset: 0x1E41E, size: 0x8, addend: 0x0, symName: __ZNKSt3__116__deque_iteratorI6AlumnoPKS1_RS2_PKS3_lLl28EEdeB8ue170006Ev, symObjAddr: 0x129AC, symBinAddr: 0x100015AC8, symSize: 0x18 }
  - { offsetInCU: 0x1E444, offset: 0x1E444, size: 0x8, addend: 0x0, symName: __ZNSt3__116__deque_iteratorI6AlumnoPKS1_RS2_PKS3_lLl28EEppB8ue170006Ev, symObjAddr: 0x129C4, symBinAddr: 0x100015AE0, symSize: 0x70 }
  - { offsetInCU: 0x1E46A, offset: 0x1E46A, size: 0x8, addend: 0x0, symName: __ZNSt3__15dequeI6AlumnoNS_9allocatorIS1_EEE21_ConstructTransactionD1B8ue170006Ev, symObjAddr: 0x12A34, symBinAddr: 0x100015B50, symSize: 0x2C }
  - { offsetInCU: 0x1E494, offset: 0x1E494, size: 0x8, addend: 0x0, symName: __ZNSt3__15dequeI6AlumnoNS_9allocatorIS1_EEE13__deque_rangeppB8ue170006Ev, symObjAddr: 0x12A60, symBinAddr: 0x100015B7C, symSize: 0x64 }
  - { offsetInCU: 0x1E4BA, offset: 0x1E4BA, size: 0x8, addend: 0x0, symName: __ZNSt3__15dequeI6AlumnoNS_9allocatorIS1_EEE18__recommend_blocksB8ue170006Em, symObjAddr: 0x12AC4, symBinAddr: 0x100015BE0, symSize: 0x40 }
  - { offsetInCU: 0x1E4DE, offset: 0x1E4DE, size: 0x8, addend: 0x0, symName: __ZNSt3__114__split_bufferIP6AlumnoRNS_9allocatorIS2_EEE4backB8ue170006Ev, symObjAddr: 0x12B04, symBinAddr: 0x100015C20, symSize: 0x1C }
  - { offsetInCU: 0x1E504, offset: 0x1E504, size: 0x8, addend: 0x0, symName: __ZNSt3__114__split_bufferIP6AlumnoRNS_9allocatorIS2_EEE5beginB8ue170006Ev, symObjAddr: 0x12B20, symBinAddr: 0x100015C3C, symSize: 0x18 }
  - { offsetInCU: 0x1E52A, offset: 0x1E52A, size: 0x8, addend: 0x0, symName: __ZNSt3__114__split_bufferIP6AlumnoRNS_9allocatorIS2_EEE3endB8ue170006Ev, symObjAddr: 0x12B38, symBinAddr: 0x100015C54, symSize: 0x18 }
  - { offsetInCU: 0x1E550, offset: 0x1E550, size: 0x8, addend: 0x0, symName: __ZNSt3__114__split_bufferIP6AlumnoRNS_9allocatorIS2_EEE9push_backB8ue170006ERKS2_, symObjAddr: 0x12B50, symBinAddr: 0x100015C6C, symSize: 0x268 }
  - { offsetInCU: 0x1E5C8, offset: 0x1E5C8, size: 0x8, addend: 0x0, symName: __ZNSt3__116__deque_iteratorI6AlumnoPS1_RS1_PS2_lLl28EEpLB8ue170006El, symObjAddr: 0x12DB8, symBinAddr: 0x100015ED4, symSize: 0x120 }
  - { offsetInCU: 0x1E61A, offset: 0x1E61A, size: 0x8, addend: 0x0, symName: __ZNSt3__15dequeI6AlumnoNS_9allocatorIS1_EEE13__deque_rangeC2B8ue170006ENS_16__deque_iteratorIS1_PS1_RS1_PS7_lLl28EEESA_, symObjAddr: 0x12ED8, symBinAddr: 0x100015FF4, symSize: 0x34 }
  - { offsetInCU: 0x1E662, offset: 0x1E662, size: 0x8, addend: 0x0, symName: __ZNSt3__15dequeI6AlumnoNS_9allocatorIS1_EEE19__deque_block_rangeC1B8ue170006EPS1_S6_, symObjAddr: 0x12F3C, symBinAddr: 0x100016058, symSize: 0x3C }
  - { offsetInCU: 0x1E6AA, offset: 0x1E6AA, size: 0x8, addend: 0x0, symName: __ZNSt3__15dequeI6AlumnoNS_9allocatorIS1_EEE19__deque_block_rangeC2B8ue170006EPS1_S6_, symObjAddr: 0x12F78, symBinAddr: 0x100016094, symSize: 0x2C }
  - { offsetInCU: 0x1E6F2, offset: 0x1E6F2, size: 0x8, addend: 0x0, symName: __ZNSt3__15dequeI6AlumnoNS_9allocatorIS1_EEE21_ConstructTransactionC2B8ue170006EPS4_RNS4_19__deque_block_rangeE, symObjAddr: 0x12FA4, symBinAddr: 0x1000160C0, symSize: 0x48 }
  - { offsetInCU: 0x1E73A, offset: 0x1E73A, size: 0x8, addend: 0x0, symName: __ZNSt3__15dequeI6AlumnoNS_9allocatorIS1_EEE21_ConstructTransactionD2B8ue170006Ev, symObjAddr: 0x12FEC, symBinAddr: 0x100016108, symSize: 0x5C }
  - { offsetInCU: 0x1E764, offset: 0x1E764, size: 0x8, addend: 0x0, symName: __ZNKSt3__15dequeI6AlumnoNS_9allocatorIS1_EEE22__annotate_shrink_backB8ue170006Emm, symObjAddr: 0x13048, symBinAddr: 0x100016164, symSize: 0x60 }
  - { offsetInCU: 0x1E7A8, offset: 0x1E7A8, size: 0x8, addend: 0x0, symName: __ZNSt3__15dequeI6AlumnoNS_9allocatorIS1_EEE25__maybe_remove_back_spareB8ue170006Eb, symObjAddr: 0x130A8, symBinAddr: 0x1000161C4, symSize: 0xE8 }
  - { offsetInCU: 0x1E7DD, offset: 0x1E7DD, size: 0x8, addend: 0x0, symName: __ZNKSt3__15dequeI6AlumnoNS_9allocatorIS1_EEE19__back_spare_blocksB8ue170006Ev, symObjAddr: 0x13190, symBinAddr: 0x1000162AC, symSize: 0x2C }
  - { offsetInCU: 0x1E803, offset: 0x1E803, size: 0x8, addend: 0x0, symName: __ZNSt3__114__split_bufferIP6AlumnoNS_9allocatorIS2_EEE4backB8ue170006Ev, symObjAddr: 0x131BC, symBinAddr: 0x1000162D8, symSize: 0x1C }
  - { offsetInCU: 0x1E829, offset: 0x1E829, size: 0x8, addend: 0x0, symName: __ZNSt3__114__split_bufferIP6AlumnoNS_9allocatorIS2_EEE8pop_backB8ue170006Ev, symObjAddr: 0x131D8, symBinAddr: 0x1000162F4, symSize: 0x2C }
  - { offsetInCU: 0x1E84F, offset: 0x1E84F, size: 0x8, addend: 0x0, symName: __ZNSt3__116__deque_iteratorI6AlumnoPKS1_RS2_PKS3_lLl28EEC2B8ue170006IPS1_RS1_PS9_EERKNS0_IS1_T_T0_T1_lLl28EEEPNS_9enable_ifIXsr14is_convertibleISC_S3_EE5valueEvE4typeE, symObjAddr: 0x13204, symBinAddr: 0x100016320, symSize: 0x34 }
  - { offsetInCU: 0x1E8AF, offset: 0x1E8AF, size: 0x8, addend: 0x0, symName: __ZNSt3__116__deque_iteratorI6AlumnoPKS1_RS2_PKS3_lLl28EEC1B8ue170006ES6_S3_, symObjAddr: 0x1329C, symBinAddr: 0x1000163B8, symSize: 0x3C }
  - { offsetInCU: 0x1E8F7, offset: 0x1E8F7, size: 0x8, addend: 0x0, symName: __ZNSt3__116__deque_iteratorI6AlumnoPKS1_RS2_PKS3_lLl28EEC2B8ue170006ES6_S3_, symObjAddr: 0x132D8, symBinAddr: 0x1000163F4, symSize: 0x2C }
  - { offsetInCU: 0x1E93F, offset: 0x1E93F, size: 0x8, addend: 0x0, symName: __ZNSt3__15dequeINS_12basic_stringIcNS_11char_traitsIcEENS_9allocatorIcEEEENS4_IS6_EEE5frontEv, symObjAddr: 0x13304, symBinAddr: 0x100016420, symSize: 0x58 }
  - { offsetInCU: 0x1E967, offset: 0x1E967, size: 0x8, addend: 0x0, symName: __ZNSt3__15dequeINS_12basic_stringIcNS_11char_traitsIcEENS_9allocatorIcEEEENS4_IS6_EEE9pop_frontEv, symObjAddr: 0x1335C, symBinAddr: 0x100016478, symSize: 0xDC }
  - { offsetInCU: 0x1E9BC, offset: 0x1E9BC, size: 0x8, addend: 0x0, symName: __ZNKSt3__15dequeINS_12basic_stringIcNS_11char_traitsIcEENS_9allocatorIcEEEENS4_IS6_EEE23__annotate_shrink_frontB8ue170006Emm, symObjAddr: 0x13438, symBinAddr: 0x100016554, symSize: 0x70 }
  - { offsetInCU: 0x1EA00, offset: 0x1EA00, size: 0x8, addend: 0x0, symName: __ZNSt3__15dequeINS_12basic_stringIcNS_11char_traitsIcEENS_9allocatorIcEEEENS4_IS6_EEE26__maybe_remove_front_spareB8ue170006Eb, symObjAddr: 0x134A8, symBinAddr: 0x1000165C4, symSize: 0xEC }
  - { offsetInCU: 0x1EA35, offset: 0x1EA35, size: 0x8, addend: 0x0, symName: __ZNKSt3__15dequeINS_12basic_stringIcNS_11char_traitsIcEENS_9allocatorIcEEEENS4_IS6_EEE20__front_spare_blocksB8ue170006Ev, symObjAddr: 0x13594, symBinAddr: 0x1000166B0, symSize: 0x2C }
...
